
ctarget:     file format elf64-x86-64


Disassembly of section .init:

0000000000400c48 <_init>:
  400c48:	48 83 ec 08          	sub    $0x8,%rsp
  400c4c:	48 8b 05 a5 43 20 00 	mov    0x2043a5(%rip),%rax        # 604ff8 <__gmon_start__>
  400c53:	48 85 c0             	test   %rax,%rax
  400c56:	74 05                	je     400c5d <_init+0x15>
  400c58:	e8 43 02 00 00       	call   400ea0 <__gmon_start__@plt>
  400c5d:	48 83 c4 08          	add    $0x8,%rsp
  400c61:	c3                   	ret    

Disassembly of section .plt:

0000000000400c70 <.plt>:
  400c70:	ff 35 92 43 20 00    	push   0x204392(%rip)        # 605008 <_GLOBAL_OFFSET_TABLE_+0x8>
  400c76:	ff 25 94 43 20 00    	jmp    *0x204394(%rip)        # 605010 <_GLOBAL_OFFSET_TABLE_+0x10>
  400c7c:	0f 1f 40 00          	nopl   0x0(%rax)

0000000000400c80 <strcasecmp@plt>:
  400c80:	ff 25 92 43 20 00    	jmp    *0x204392(%rip)        # 605018 <strcasecmp@GLIBC_2.2.5>
  400c86:	68 00 00 00 00       	push   $0x0
  400c8b:	e9 e0 ff ff ff       	jmp    400c70 <.plt>

0000000000400c90 <__errno_location@plt>:
  400c90:	ff 25 8a 43 20 00    	jmp    *0x20438a(%rip)        # 605020 <__errno_location@GLIBC_2.2.5>
  400c96:	68 01 00 00 00       	push   $0x1
  400c9b:	e9 d0 ff ff ff       	jmp    400c70 <.plt>

0000000000400ca0 <srandom@plt>:
  400ca0:	ff 25 82 43 20 00    	jmp    *0x204382(%rip)        # 605028 <srandom@GLIBC_2.2.5>
  400ca6:	68 02 00 00 00       	push   $0x2
  400cab:	e9 c0 ff ff ff       	jmp    400c70 <.plt>

0000000000400cb0 <strncmp@plt>:
  400cb0:	ff 25 7a 43 20 00    	jmp    *0x20437a(%rip)        # 605030 <strncmp@GLIBC_2.2.5>
  400cb6:	68 03 00 00 00       	push   $0x3
  400cbb:	e9 b0 ff ff ff       	jmp    400c70 <.plt>

0000000000400cc0 <strcpy@plt>:
  400cc0:	ff 25 72 43 20 00    	jmp    *0x204372(%rip)        # 605038 <strcpy@GLIBC_2.2.5>
  400cc6:	68 04 00 00 00       	push   $0x4
  400ccb:	e9 a0 ff ff ff       	jmp    400c70 <.plt>

0000000000400cd0 <puts@plt>:
  400cd0:	ff 25 6a 43 20 00    	jmp    *0x20436a(%rip)        # 605040 <puts@GLIBC_2.2.5>
  400cd6:	68 05 00 00 00       	push   $0x5
  400cdb:	e9 90 ff ff ff       	jmp    400c70 <.plt>

0000000000400ce0 <write@plt>:
  400ce0:	ff 25 62 43 20 00    	jmp    *0x204362(%rip)        # 605048 <write@GLIBC_2.2.5>
  400ce6:	68 06 00 00 00       	push   $0x6
  400ceb:	e9 80 ff ff ff       	jmp    400c70 <.plt>

0000000000400cf0 <__stack_chk_fail@plt>:
  400cf0:	ff 25 5a 43 20 00    	jmp    *0x20435a(%rip)        # 605050 <__stack_chk_fail@GLIBC_2.4>
  400cf6:	68 07 00 00 00       	push   $0x7
  400cfb:	e9 70 ff ff ff       	jmp    400c70 <.plt>

0000000000400d00 <mmap@plt>:
  400d00:	ff 25 52 43 20 00    	jmp    *0x204352(%rip)        # 605058 <mmap@GLIBC_2.2.5>
  400d06:	68 08 00 00 00       	push   $0x8
  400d0b:	e9 60 ff ff ff       	jmp    400c70 <.plt>

0000000000400d10 <memset@plt>:
  400d10:	ff 25 4a 43 20 00    	jmp    *0x20434a(%rip)        # 605060 <memset@GLIBC_2.2.5>
  400d16:	68 09 00 00 00       	push   $0x9
  400d1b:	e9 50 ff ff ff       	jmp    400c70 <.plt>

0000000000400d20 <alarm@plt>:
  400d20:	ff 25 42 43 20 00    	jmp    *0x204342(%rip)        # 605068 <alarm@GLIBC_2.2.5>
  400d26:	68 0a 00 00 00       	push   $0xa
  400d2b:	e9 40 ff ff ff       	jmp    400c70 <.plt>

0000000000400d30 <close@plt>:
  400d30:	ff 25 3a 43 20 00    	jmp    *0x20433a(%rip)        # 605070 <close@GLIBC_2.2.5>
  400d36:	68 0b 00 00 00       	push   $0xb
  400d3b:	e9 30 ff ff ff       	jmp    400c70 <.plt>

0000000000400d40 <read@plt>:
  400d40:	ff 25 32 43 20 00    	jmp    *0x204332(%rip)        # 605078 <read@GLIBC_2.2.5>
  400d46:	68 0c 00 00 00       	push   $0xc
  400d4b:	e9 20 ff ff ff       	jmp    400c70 <.plt>

0000000000400d50 <__libc_start_main@plt>:
  400d50:	ff 25 2a 43 20 00    	jmp    *0x20432a(%rip)        # 605080 <__libc_start_main@GLIBC_2.2.5>
  400d56:	68 0d 00 00 00       	push   $0xd
  400d5b:	e9 10 ff ff ff       	jmp    400c70 <.plt>

0000000000400d60 <signal@plt>:
  400d60:	ff 25 22 43 20 00    	jmp    *0x204322(%rip)        # 605088 <signal@GLIBC_2.2.5>
  400d66:	68 0e 00 00 00       	push   $0xe
  400d6b:	e9 00 ff ff ff       	jmp    400c70 <.plt>

0000000000400d70 <gethostbyname@plt>:
  400d70:	ff 25 1a 43 20 00    	jmp    *0x20431a(%rip)        # 605090 <gethostbyname@GLIBC_2.2.5>
  400d76:	68 0f 00 00 00       	push   $0xf
  400d7b:	e9 f0 fe ff ff       	jmp    400c70 <.plt>

0000000000400d80 <__memmove_chk@plt>:
  400d80:	ff 25 12 43 20 00    	jmp    *0x204312(%rip)        # 605098 <__memmove_chk@GLIBC_2.3.4>
  400d86:	68 10 00 00 00       	push   $0x10
  400d8b:	e9 e0 fe ff ff       	jmp    400c70 <.plt>

0000000000400d90 <strtol@plt>:
  400d90:	ff 25 0a 43 20 00    	jmp    *0x20430a(%rip)        # 6050a0 <strtol@GLIBC_2.2.5>
  400d96:	68 11 00 00 00       	push   $0x11
  400d9b:	e9 d0 fe ff ff       	jmp    400c70 <.plt>

0000000000400da0 <memcpy@plt>:
  400da0:	ff 25 02 43 20 00    	jmp    *0x204302(%rip)        # 6050a8 <memcpy@GLIBC_2.14>
  400da6:	68 12 00 00 00       	push   $0x12
  400dab:	e9 c0 fe ff ff       	jmp    400c70 <.plt>

0000000000400db0 <time@plt>:
  400db0:	ff 25 fa 42 20 00    	jmp    *0x2042fa(%rip)        # 6050b0 <time@GLIBC_2.2.5>
  400db6:	68 13 00 00 00       	push   $0x13
  400dbb:	e9 b0 fe ff ff       	jmp    400c70 <.plt>

0000000000400dc0 <random@plt>:
  400dc0:	ff 25 f2 42 20 00    	jmp    *0x2042f2(%rip)        # 6050b8 <random@GLIBC_2.2.5>
  400dc6:	68 14 00 00 00       	push   $0x14
  400dcb:	e9 a0 fe ff ff       	jmp    400c70 <.plt>

0000000000400dd0 <_IO_getc@plt>:
  400dd0:	ff 25 ea 42 20 00    	jmp    *0x2042ea(%rip)        # 6050c0 <_IO_getc@GLIBC_2.2.5>
  400dd6:	68 15 00 00 00       	push   $0x15
  400ddb:	e9 90 fe ff ff       	jmp    400c70 <.plt>

0000000000400de0 <__isoc99_sscanf@plt>:
  400de0:	ff 25 e2 42 20 00    	jmp    *0x2042e2(%rip)        # 6050c8 <__isoc99_sscanf@GLIBC_2.7>
  400de6:	68 16 00 00 00       	push   $0x16
  400deb:	e9 80 fe ff ff       	jmp    400c70 <.plt>

0000000000400df0 <munmap@plt>:
  400df0:	ff 25 da 42 20 00    	jmp    *0x2042da(%rip)        # 6050d0 <munmap@GLIBC_2.2.5>
  400df6:	68 17 00 00 00       	push   $0x17
  400dfb:	e9 70 fe ff ff       	jmp    400c70 <.plt>

0000000000400e00 <__printf_chk@plt>:
  400e00:	ff 25 d2 42 20 00    	jmp    *0x2042d2(%rip)        # 6050d8 <__printf_chk@GLIBC_2.3.4>
  400e06:	68 18 00 00 00       	push   $0x18
  400e0b:	e9 60 fe ff ff       	jmp    400c70 <.plt>

0000000000400e10 <fopen@plt>:
  400e10:	ff 25 ca 42 20 00    	jmp    *0x2042ca(%rip)        # 6050e0 <fopen@GLIBC_2.2.5>
  400e16:	68 19 00 00 00       	push   $0x19
  400e1b:	e9 50 fe ff ff       	jmp    400c70 <.plt>

0000000000400e20 <getopt@plt>:
  400e20:	ff 25 c2 42 20 00    	jmp    *0x2042c2(%rip)        # 6050e8 <getopt@GLIBC_2.2.5>
  400e26:	68 1a 00 00 00       	push   $0x1a
  400e2b:	e9 40 fe ff ff       	jmp    400c70 <.plt>

0000000000400e30 <strtoul@plt>:
  400e30:	ff 25 ba 42 20 00    	jmp    *0x2042ba(%rip)        # 6050f0 <strtoul@GLIBC_2.2.5>
  400e36:	68 1b 00 00 00       	push   $0x1b
  400e3b:	e9 30 fe ff ff       	jmp    400c70 <.plt>

0000000000400e40 <gethostname@plt>:
  400e40:	ff 25 b2 42 20 00    	jmp    *0x2042b2(%rip)        # 6050f8 <gethostname@GLIBC_2.2.5>
  400e46:	68 1c 00 00 00       	push   $0x1c
  400e4b:	e9 20 fe ff ff       	jmp    400c70 <.plt>

0000000000400e50 <exit@plt>:
  400e50:	ff 25 aa 42 20 00    	jmp    *0x2042aa(%rip)        # 605100 <exit@GLIBC_2.2.5>
  400e56:	68 1d 00 00 00       	push   $0x1d
  400e5b:	e9 10 fe ff ff       	jmp    400c70 <.plt>

0000000000400e60 <connect@plt>:
  400e60:	ff 25 a2 42 20 00    	jmp    *0x2042a2(%rip)        # 605108 <connect@GLIBC_2.2.5>
  400e66:	68 1e 00 00 00       	push   $0x1e
  400e6b:	e9 00 fe ff ff       	jmp    400c70 <.plt>

0000000000400e70 <__fprintf_chk@plt>:
  400e70:	ff 25 9a 42 20 00    	jmp    *0x20429a(%rip)        # 605110 <__fprintf_chk@GLIBC_2.3.4>
  400e76:	68 1f 00 00 00       	push   $0x1f
  400e7b:	e9 f0 fd ff ff       	jmp    400c70 <.plt>

0000000000400e80 <__sprintf_chk@plt>:
  400e80:	ff 25 92 42 20 00    	jmp    *0x204292(%rip)        # 605118 <__sprintf_chk@GLIBC_2.3.4>
  400e86:	68 20 00 00 00       	push   $0x20
  400e8b:	e9 e0 fd ff ff       	jmp    400c70 <.plt>

0000000000400e90 <socket@plt>:
  400e90:	ff 25 8a 42 20 00    	jmp    *0x20428a(%rip)        # 605120 <socket@GLIBC_2.2.5>
  400e96:	68 21 00 00 00       	push   $0x21
  400e9b:	e9 d0 fd ff ff       	jmp    400c70 <.plt>

Disassembly of section .plt.got:

0000000000400ea0 <__gmon_start__@plt>:
  400ea0:	ff 25 52 41 20 00    	jmp    *0x204152(%rip)        # 604ff8 <__gmon_start__>
  400ea6:	66 90                	xchg   %ax,%ax

Disassembly of section .text:

0000000000400eb0 <_start>:
  400eb0:	31 ed                	xor    %ebp,%ebp
  400eb2:	49 89 d1             	mov    %rdx,%r9
  400eb5:	5e                   	pop    %rsi
  400eb6:	48 89 e2             	mov    %rsp,%rdx
  400eb9:	48 83 e4 f0          	and    $0xfffffffffffffff0,%rsp
  400ebd:	50                   	push   %rax
  400ebe:	54                   	push   %rsp
  400ebf:	49 c7 c0 c0 2e 40 00 	mov    $0x402ec0,%r8
  400ec6:	48 c7 c1 50 2e 40 00 	mov    $0x402e50,%rcx
  400ecd:	48 c7 c7 b5 11 40 00 	mov    $0x4011b5,%rdi
  400ed4:	e8 77 fe ff ff       	call   400d50 <__libc_start_main@plt>
  400ed9:	f4                   	hlt    
  400eda:	66 0f 1f 44 00 00    	nopw   0x0(%rax,%rax,1)

0000000000400ee0 <deregister_tm_clones>:
  400ee0:	b8 b7 54 60 00       	mov    $0x6054b7,%eax
  400ee5:	55                   	push   %rbp
  400ee6:	48 2d b0 54 60 00    	sub    $0x6054b0,%rax
  400eec:	48 83 f8 0e          	cmp    $0xe,%rax
  400ef0:	48 89 e5             	mov    %rsp,%rbp
  400ef3:	76 1b                	jbe    400f10 <deregister_tm_clones+0x30>
  400ef5:	b8 00 00 00 00       	mov    $0x0,%eax
  400efa:	48 85 c0             	test   %rax,%rax
  400efd:	74 11                	je     400f10 <deregister_tm_clones+0x30>
  400eff:	5d                   	pop    %rbp
  400f00:	bf b0 54 60 00       	mov    $0x6054b0,%edi
  400f05:	ff e0                	jmp    *%rax
  400f07:	66 0f 1f 84 00 00 00 	nopw   0x0(%rax,%rax,1)
  400f0e:	00 00 
  400f10:	5d                   	pop    %rbp
  400f11:	c3                   	ret    
  400f12:	0f 1f 40 00          	nopl   0x0(%rax)
  400f16:	66 2e 0f 1f 84 00 00 	cs nopw 0x0(%rax,%rax,1)
  400f1d:	00 00 00 

0000000000400f20 <register_tm_clones>:
  400f20:	be b0 54 60 00       	mov    $0x6054b0,%esi
  400f25:	55                   	push   %rbp
  400f26:	48 81 ee b0 54 60 00 	sub    $0x6054b0,%rsi
  400f2d:	48 c1 fe 03          	sar    $0x3,%rsi
  400f31:	48 89 e5             	mov    %rsp,%rbp
  400f34:	48 89 f0             	mov    %rsi,%rax
  400f37:	48 c1 e8 3f          	shr    $0x3f,%rax
  400f3b:	48 01 c6             	add    %rax,%rsi
  400f3e:	48 d1 fe             	sar    %rsi
  400f41:	74 15                	je     400f58 <register_tm_clones+0x38>
  400f43:	b8 00 00 00 00       	mov    $0x0,%eax
  400f48:	48 85 c0             	test   %rax,%rax
  400f4b:	74 0b                	je     400f58 <register_tm_clones+0x38>
  400f4d:	5d                   	pop    %rbp
  400f4e:	bf b0 54 60 00       	mov    $0x6054b0,%edi
  400f53:	ff e0                	jmp    *%rax
  400f55:	0f 1f 00             	nopl   (%rax)
  400f58:	5d                   	pop    %rbp
  400f59:	c3                   	ret    
  400f5a:	66 0f 1f 44 00 00    	nopw   0x0(%rax,%rax,1)

0000000000400f60 <__do_global_dtors_aux>:
  400f60:	80 3d 81 45 20 00 00 	cmpb   $0x0,0x204581(%rip)        # 6054e8 <completed.7585>
  400f67:	75 11                	jne    400f7a <__do_global_dtors_aux+0x1a>
  400f69:	55                   	push   %rbp
  400f6a:	48 89 e5             	mov    %rsp,%rbp
  400f6d:	e8 6e ff ff ff       	call   400ee0 <deregister_tm_clones>
  400f72:	5d                   	pop    %rbp
  400f73:	c6 05 6e 45 20 00 01 	movb   $0x1,0x20456e(%rip)        # 6054e8 <completed.7585>
  400f7a:	f3 c3                	repz ret 
  400f7c:	0f 1f 40 00          	nopl   0x0(%rax)

0000000000400f80 <frame_dummy>:
  400f80:	bf 20 4e 60 00       	mov    $0x604e20,%edi
  400f85:	48 83 3f 00          	cmpq   $0x0,(%rdi)
  400f89:	75 05                	jne    400f90 <frame_dummy+0x10>
  400f8b:	eb 93                	jmp    400f20 <register_tm_clones>
  400f8d:	0f 1f 00             	nopl   (%rax)
  400f90:	b8 00 00 00 00       	mov    $0x0,%eax
  400f95:	48 85 c0             	test   %rax,%rax
  400f98:	74 f1                	je     400f8b <frame_dummy+0xb>
  400f9a:	55                   	push   %rbp
  400f9b:	48 89 e5             	mov    %rsp,%rbp
  400f9e:	ff d0                	call   *%rax
  400fa0:	5d                   	pop    %rbp
  400fa1:	e9 7a ff ff ff       	jmp    400f20 <register_tm_clones>

0000000000400fa6 <usage>:
  400fa6:	48 83 ec 08          	sub    $0x8,%rsp
  400faa:	48 89 fa             	mov    %rdi,%rdx
  400fad:	83 3d 74 45 20 00 00 	cmpl   $0x0,0x204574(%rip)        # 605528 <is_checker>
  400fb4:	74 3e                	je     400ff4 <usage+0x4e>
  400fb6:	be d8 2e 40 00       	mov    $0x402ed8,%esi
  400fbb:	bf 01 00 00 00       	mov    $0x1,%edi
  400fc0:	b8 00 00 00 00       	mov    $0x0,%eax
  400fc5:	e8 36 fe ff ff       	call   400e00 <__printf_chk@plt>
  400fca:	bf 10 2f 40 00       	mov    $0x402f10,%edi
  400fcf:	e8 fc fc ff ff       	call   400cd0 <puts@plt>
  400fd4:	bf 88 30 40 00       	mov    $0x403088,%edi
  400fd9:	e8 f2 fc ff ff       	call   400cd0 <puts@plt>
  400fde:	bf 38 2f 40 00       	mov    $0x402f38,%edi
  400fe3:	e8 e8 fc ff ff       	call   400cd0 <puts@plt>
  400fe8:	bf a2 30 40 00       	mov    $0x4030a2,%edi
  400fed:	e8 de fc ff ff       	call   400cd0 <puts@plt>
  400ff2:	eb 32                	jmp    401026 <usage+0x80>
  400ff4:	be be 30 40 00       	mov    $0x4030be,%esi
  400ff9:	bf 01 00 00 00       	mov    $0x1,%edi
  400ffe:	b8 00 00 00 00       	mov    $0x0,%eax
  401003:	e8 f8 fd ff ff       	call   400e00 <__printf_chk@plt>
  401008:	bf 60 2f 40 00       	mov    $0x402f60,%edi
  40100d:	e8 be fc ff ff       	call   400cd0 <puts@plt>
  401012:	bf 88 2f 40 00       	mov    $0x402f88,%edi
  401017:	e8 b4 fc ff ff       	call   400cd0 <puts@plt>
  40101c:	bf dc 30 40 00       	mov    $0x4030dc,%edi
  401021:	e8 aa fc ff ff       	call   400cd0 <puts@plt>
  401026:	bf 00 00 00 00       	mov    $0x0,%edi
  40102b:	e8 20 fe ff ff       	call   400e50 <exit@plt>

0000000000401030 <initialize_target>:
  401030:	55                   	push   %rbp
  401031:	53                   	push   %rbx
  401032:	48 81 ec 18 21 00 00 	sub    $0x2118,%rsp
  401039:	89 f5                	mov    %esi,%ebp
  40103b:	64 48 8b 04 25 28 00 	mov    %fs:0x28,%rax
  401042:	00 00 
  401044:	48 89 84 24 08 21 00 	mov    %rax,0x2108(%rsp)
  40104b:	00 
  40104c:	31 c0                	xor    %eax,%eax
  40104e:	89 3d c4 44 20 00    	mov    %edi,0x2044c4(%rip)        # 605518 <check_level>
  401054:	8b 3d 0e 41 20 00    	mov    0x20410e(%rip),%edi        # 605168 <target_id>
  40105a:	e8 d0 1d 00 00       	call   402e2f <gencookie>
  40105f:	89 05 bf 44 20 00    	mov    %eax,0x2044bf(%rip)        # 605524 <cookie>
  401065:	89 c7                	mov    %eax,%edi
  401067:	e8 c3 1d 00 00       	call   402e2f <gencookie>
  40106c:	89 05 ae 44 20 00    	mov    %eax,0x2044ae(%rip)        # 605520 <authkey>
  401072:	8b 05 f0 40 20 00    	mov    0x2040f0(%rip),%eax        # 605168 <target_id>
  401078:	8d 78 01             	lea    0x1(%rax),%edi
  40107b:	e8 20 fc ff ff       	call   400ca0 <srandom@plt>
  401080:	e8 3b fd ff ff       	call   400dc0 <random@plt>
  401085:	89 c7                	mov    %eax,%edi
  401087:	e8 03 03 00 00       	call   40138f <scramble>
  40108c:	89 c3                	mov    %eax,%ebx
  40108e:	85 ed                	test   %ebp,%ebp
  401090:	74 18                	je     4010aa <initialize_target+0x7a>
  401092:	bf 00 00 00 00       	mov    $0x0,%edi
  401097:	e8 14 fd ff ff       	call   400db0 <time@plt>
  40109c:	89 c7                	mov    %eax,%edi
  40109e:	e8 fd fb ff ff       	call   400ca0 <srandom@plt>
  4010a3:	e8 18 fd ff ff       	call   400dc0 <random@plt>
  4010a8:	eb 05                	jmp    4010af <initialize_target+0x7f>
  4010aa:	b8 00 00 00 00       	mov    $0x0,%eax
  4010af:	01 c3                	add    %eax,%ebx
  4010b1:	0f b7 db             	movzwl %bx,%ebx
  4010b4:	8d 04 dd 00 01 00 00 	lea    0x100(,%rbx,8),%eax
  4010bb:	89 c0                	mov    %eax,%eax
  4010bd:	48 89 05 dc 43 20 00 	mov    %rax,0x2043dc(%rip)        # 6054a0 <buf_offset>
  4010c4:	c6 05 7d 50 20 00 63 	movb   $0x63,0x20507d(%rip)        # 606148 <target_prefix>
  4010cb:	83 3d d6 43 20 00 00 	cmpl   $0x0,0x2043d6(%rip)        # 6054a8 <notify>
  4010d2:	0f 84 bb 00 00 00    	je     401193 <initialize_target+0x163>
  4010d8:	83 3d 49 44 20 00 00 	cmpl   $0x0,0x204449(%rip)        # 605528 <is_checker>
  4010df:	0f 85 ae 00 00 00    	jne    401193 <initialize_target+0x163>
  4010e5:	be 00 01 00 00       	mov    $0x100,%esi
  4010ea:	48 89 e7             	mov    %rsp,%rdi
  4010ed:	e8 4e fd ff ff       	call   400e40 <gethostname@plt>
  4010f2:	85 c0                	test   %eax,%eax
  4010f4:	74 25                	je     40111b <initialize_target+0xeb>
  4010f6:	bf b8 2f 40 00       	mov    $0x402fb8,%edi
  4010fb:	e8 d0 fb ff ff       	call   400cd0 <puts@plt>
  401100:	bf 08 00 00 00       	mov    $0x8,%edi
  401105:	e8 46 fd ff ff       	call   400e50 <exit@plt>
  40110a:	48 89 e6             	mov    %rsp,%rsi
  40110d:	e8 6e fb ff ff       	call   400c80 <strcasecmp@plt>
  401112:	85 c0                	test   %eax,%eax
  401114:	74 21                	je     401137 <initialize_target+0x107>
  401116:	83 c3 01             	add    $0x1,%ebx
  401119:	eb 05                	jmp    401120 <initialize_target+0xf0>
  40111b:	bb 00 00 00 00       	mov    $0x0,%ebx
  401120:	48 63 c3             	movslq %ebx,%rax
  401123:	48 8b 3c c5 80 51 60 	mov    0x605180(,%rax,8),%rdi
  40112a:	00 
  40112b:	48 85 ff             	test   %rdi,%rdi
  40112e:	75 da                	jne    40110a <initialize_target+0xda>
  401130:	b8 00 00 00 00       	mov    $0x0,%eax
  401135:	eb 05                	jmp    40113c <initialize_target+0x10c>
  401137:	b8 01 00 00 00       	mov    $0x1,%eax
  40113c:	85 c0                	test   %eax,%eax
  40113e:	75 1c                	jne    40115c <initialize_target+0x12c>
  401140:	48 89 e2             	mov    %rsp,%rdx
  401143:	be f0 2f 40 00       	mov    $0x402ff0,%esi
  401148:	bf 01 00 00 00       	mov    $0x1,%edi
  40114d:	e8 ae fc ff ff       	call   400e00 <__printf_chk@plt>
  401152:	bf 08 00 00 00       	mov    $0x8,%edi
  401157:	e8 f4 fc ff ff       	call   400e50 <exit@plt>
  40115c:	48 8d bc 24 00 01 00 	lea    0x100(%rsp),%rdi
  401163:	00 
  401164:	e8 30 1a 00 00       	call   402b99 <init_driver>
  401169:	85 c0                	test   %eax,%eax
  40116b:	79 26                	jns    401193 <initialize_target+0x163>
  40116d:	48 8d 94 24 00 01 00 	lea    0x100(%rsp),%rdx
  401174:	00 
  401175:	be 30 30 40 00       	mov    $0x403030,%esi
  40117a:	bf 01 00 00 00       	mov    $0x1,%edi
  40117f:	b8 00 00 00 00       	mov    $0x0,%eax
  401184:	e8 77 fc ff ff       	call   400e00 <__printf_chk@plt>
  401189:	bf 08 00 00 00       	mov    $0x8,%edi
  40118e:	e8 bd fc ff ff       	call   400e50 <exit@plt>
  401193:	48 8b 84 24 08 21 00 	mov    0x2108(%rsp),%rax
  40119a:	00 
  40119b:	64 48 33 04 25 28 00 	xor    %fs:0x28,%rax
  4011a2:	00 00 
  4011a4:	74 05                	je     4011ab <initialize_target+0x17b>
  4011a6:	e8 45 fb ff ff       	call   400cf0 <__stack_chk_fail@plt>
  4011ab:	48 81 c4 18 21 00 00 	add    $0x2118,%rsp
  4011b2:	5b                   	pop    %rbx
  4011b3:	5d                   	pop    %rbp
  4011b4:	c3                   	ret    

00000000004011b5 <main>:
  4011b5:	41 56                	push   %r14
  4011b7:	41 55                	push   %r13
  4011b9:	41 54                	push   %r12
  4011bb:	55                   	push   %rbp
  4011bc:	53                   	push   %rbx
  4011bd:	41 89 fc             	mov    %edi,%r12d
  4011c0:	48 89 f3             	mov    %rsi,%rbx
  4011c3:	be d4 1e 40 00       	mov    $0x401ed4,%esi
  4011c8:	bf 0b 00 00 00       	mov    $0xb,%edi
  4011cd:	e8 8e fb ff ff       	call   400d60 <signal@plt>
  4011d2:	be 86 1e 40 00       	mov    $0x401e86,%esi
  4011d7:	bf 07 00 00 00       	mov    $0x7,%edi
  4011dc:	e8 7f fb ff ff       	call   400d60 <signal@plt>
  4011e1:	be 22 1f 40 00       	mov    $0x401f22,%esi
  4011e6:	bf 04 00 00 00       	mov    $0x4,%edi
  4011eb:	e8 70 fb ff ff       	call   400d60 <signal@plt>
  4011f0:	83 3d 31 43 20 00 00 	cmpl   $0x0,0x204331(%rip)        # 605528 <is_checker>
  4011f7:	74 20                	je     401219 <main+0x64>
  4011f9:	be 70 1f 40 00       	mov    $0x401f70,%esi
  4011fe:	bf 0e 00 00 00       	mov    $0xe,%edi
  401203:	e8 58 fb ff ff       	call   400d60 <signal@plt>
  401208:	bf 05 00 00 00       	mov    $0x5,%edi
  40120d:	e8 0e fb ff ff       	call   400d20 <alarm@plt>
  401212:	bd fa 30 40 00       	mov    $0x4030fa,%ebp
  401217:	eb 05                	jmp    40121e <main+0x69>
  401219:	bd f5 30 40 00       	mov    $0x4030f5,%ebp
  40121e:	48 8b 05 9b 42 20 00 	mov    0x20429b(%rip),%rax        # 6054c0 <stdin@GLIBC_2.2.5>
  401225:	48 89 05 e4 42 20 00 	mov    %rax,0x2042e4(%rip)        # 605510 <infile>
  40122c:	41 bd 00 00 00 00    	mov    $0x0,%r13d
  401232:	41 be 00 00 00 00    	mov    $0x0,%r14d
  401238:	e9 c6 00 00 00       	jmp    401303 <main+0x14e>
  40123d:	83 e8 61             	sub    $0x61,%eax
  401240:	3c 10                	cmp    $0x10,%al
  401242:	0f 87 9c 00 00 00    	ja     4012e4 <main+0x12f>
  401248:	0f b6 c0             	movzbl %al,%eax
  40124b:	ff 24 c5 40 31 40 00 	jmp    *0x403140(,%rax,8)
  401252:	48 8b 3b             	mov    (%rbx),%rdi
  401255:	e8 4c fd ff ff       	call   400fa6 <usage>
  40125a:	be 0b 33 40 00       	mov    $0x40330b,%esi
  40125f:	48 8b 3d 62 42 20 00 	mov    0x204262(%rip),%rdi        # 6054c8 <optarg@GLIBC_2.2.5>
  401266:	e8 a5 fb ff ff       	call   400e10 <fopen@plt>
  40126b:	48 89 05 9e 42 20 00 	mov    %rax,0x20429e(%rip)        # 605510 <infile>
  401272:	48 85 c0             	test   %rax,%rax
  401275:	0f 85 88 00 00 00    	jne    401303 <main+0x14e>
  40127b:	48 8b 0d 46 42 20 00 	mov    0x204246(%rip),%rcx        # 6054c8 <optarg@GLIBC_2.2.5>
  401282:	ba 02 31 40 00       	mov    $0x403102,%edx
  401287:	be 01 00 00 00       	mov    $0x1,%esi
  40128c:	48 8b 3d 4d 42 20 00 	mov    0x20424d(%rip),%rdi        # 6054e0 <stderr@GLIBC_2.2.5>
  401293:	e8 d8 fb ff ff       	call   400e70 <__fprintf_chk@plt>
  401298:	b8 01 00 00 00       	mov    $0x1,%eax
  40129d:	e9 e4 00 00 00       	jmp    401386 <main+0x1d1>
  4012a2:	ba 10 00 00 00       	mov    $0x10,%edx
  4012a7:	be 00 00 00 00       	mov    $0x0,%esi
  4012ac:	48 8b 3d 15 42 20 00 	mov    0x204215(%rip),%rdi        # 6054c8 <optarg@GLIBC_2.2.5>
  4012b3:	e8 78 fb ff ff       	call   400e30 <strtoul@plt>
  4012b8:	41 89 c6             	mov    %eax,%r14d
  4012bb:	eb 46                	jmp    401303 <main+0x14e>
  4012bd:	ba 0a 00 00 00       	mov    $0xa,%edx
  4012c2:	be 00 00 00 00       	mov    $0x0,%esi
  4012c7:	48 8b 3d fa 41 20 00 	mov    0x2041fa(%rip),%rdi        # 6054c8 <optarg@GLIBC_2.2.5>
  4012ce:	e8 bd fa ff ff       	call   400d90 <strtol@plt>
  4012d3:	41 89 c5             	mov    %eax,%r13d
  4012d6:	eb 2b                	jmp    401303 <main+0x14e>
  4012d8:	c7 05 c6 41 20 00 00 	movl   $0x0,0x2041c6(%rip)        # 6054a8 <notify>
  4012df:	00 00 00 
  4012e2:	eb 1f                	jmp    401303 <main+0x14e>
  4012e4:	0f be d2             	movsbl %dl,%edx
  4012e7:	be 1f 31 40 00       	mov    $0x40311f,%esi
  4012ec:	bf 01 00 00 00       	mov    $0x1,%edi
  4012f1:	b8 00 00 00 00       	mov    $0x0,%eax
  4012f6:	e8 05 fb ff ff       	call   400e00 <__printf_chk@plt>
  4012fb:	48 8b 3b             	mov    (%rbx),%rdi
  4012fe:	e8 a3 fc ff ff       	call   400fa6 <usage>
  401303:	48 89 ea             	mov    %rbp,%rdx
  401306:	48 89 de             	mov    %rbx,%rsi
  401309:	44 89 e7             	mov    %r12d,%edi
  40130c:	e8 0f fb ff ff       	call   400e20 <getopt@plt>
  401311:	89 c2                	mov    %eax,%edx
  401313:	3c ff                	cmp    $0xff,%al
  401315:	0f 85 22 ff ff ff    	jne    40123d <main+0x88>
  40131b:	be 00 00 00 00       	mov    $0x0,%esi
  401320:	44 89 ef             	mov    %r13d,%edi
  401323:	e8 08 fd ff ff       	call   401030 <initialize_target>
  401328:	83 3d f9 41 20 00 00 	cmpl   $0x0,0x2041f9(%rip)        # 605528 <is_checker>
  40132f:	74 2a                	je     40135b <main+0x1a6>
  401331:	44 3b 35 e8 41 20 00 	cmp    0x2041e8(%rip),%r14d        # 605520 <authkey>
  401338:	74 21                	je     40135b <main+0x1a6>
  40133a:	44 89 f2             	mov    %r14d,%edx
  40133d:	be 58 30 40 00       	mov    $0x403058,%esi
  401342:	bf 01 00 00 00       	mov    $0x1,%edi
  401347:	b8 00 00 00 00       	mov    $0x0,%eax
  40134c:	e8 af fa ff ff       	call   400e00 <__printf_chk@plt>
  401351:	b8 00 00 00 00       	mov    $0x0,%eax
  401356:	e8 ad 07 00 00       	call   401b08 <check_fail>
  40135b:	8b 15 c3 41 20 00    	mov    0x2041c3(%rip),%edx        # 605524 <cookie>
  401361:	be 32 31 40 00       	mov    $0x403132,%esi
  401366:	bf 01 00 00 00       	mov    $0x1,%edi
  40136b:	b8 00 00 00 00       	mov    $0x0,%eax
  401370:	e8 8b fa ff ff       	call   400e00 <__printf_chk@plt>
  401375:	48 8b 3d 24 41 20 00 	mov    0x204124(%rip),%rdi        # 6054a0 <buf_offset>
  40137c:	e8 ef 0c 00 00       	call   402070 <stable_launch>
  401381:	b8 00 00 00 00       	mov    $0x0,%eax
  401386:	5b                   	pop    %rbx
  401387:	5d                   	pop    %rbp
  401388:	41 5c                	pop    %r12
  40138a:	41 5d                	pop    %r13
  40138c:	41 5e                	pop    %r14
  40138e:	c3                   	ret    

000000000040138f <scramble>:
  40138f:	48 83 ec 38          	sub    $0x38,%rsp
  401393:	64 48 8b 04 25 28 00 	mov    %fs:0x28,%rax
  40139a:	00 00 
  40139c:	48 89 44 24 28       	mov    %rax,0x28(%rsp)
  4013a1:	31 c0                	xor    %eax,%eax
  4013a3:	eb 10                	jmp    4013b5 <scramble+0x26>
  4013a5:	69 d0 32 1d 00 00    	imul   $0x1d32,%eax,%edx
  4013ab:	01 fa                	add    %edi,%edx
  4013ad:	89 c1                	mov    %eax,%ecx
  4013af:	89 14 8c             	mov    %edx,(%rsp,%rcx,4)
  4013b2:	83 c0 01             	add    $0x1,%eax
  4013b5:	83 f8 09             	cmp    $0x9,%eax
  4013b8:	76 eb                	jbe    4013a5 <scramble+0x16>
  4013ba:	8b 04 24             	mov    (%rsp),%eax
  4013bd:	69 c0 d3 f1 00 00    	imul   $0xf1d3,%eax,%eax
  4013c3:	89 04 24             	mov    %eax,(%rsp)
  4013c6:	8b 44 24 10          	mov    0x10(%rsp),%eax
  4013ca:	69 c0 08 99 00 00    	imul   $0x9908,%eax,%eax
  4013d0:	89 44 24 10          	mov    %eax,0x10(%rsp)
  4013d4:	8b 04 24             	mov    (%rsp),%eax
  4013d7:	69 c0 e9 d5 00 00    	imul   $0xd5e9,%eax,%eax
  4013dd:	89 04 24             	mov    %eax,(%rsp)
  4013e0:	8b 04 24             	mov    (%rsp),%eax
  4013e3:	69 c0 4a 85 00 00    	imul   $0x854a,%eax,%eax
  4013e9:	89 04 24             	mov    %eax,(%rsp)
  4013ec:	8b 44 24 04          	mov    0x4(%rsp),%eax
  4013f0:	69 c0 62 26 00 00    	imul   $0x2662,%eax,%eax
  4013f6:	89 44 24 04          	mov    %eax,0x4(%rsp)
  4013fa:	8b 44 24 18          	mov    0x18(%rsp),%eax
  4013fe:	69 c0 6a f7 00 00    	imul   $0xf76a,%eax,%eax
  401404:	89 44 24 18          	mov    %eax,0x18(%rsp)
  401408:	8b 44 24 08          	mov    0x8(%rsp),%eax
  40140c:	69 c0 0e 80 00 00    	imul   $0x800e,%eax,%eax
  401412:	89 44 24 08          	mov    %eax,0x8(%rsp)
  401416:	8b 44 24 04          	mov    0x4(%rsp),%eax
  40141a:	69 c0 49 04 00 00    	imul   $0x449,%eax,%eax
  401420:	89 44 24 04          	mov    %eax,0x4(%rsp)
  401424:	8b 44 24 18          	mov    0x18(%rsp),%eax
  401428:	69 c0 1d 18 00 00    	imul   $0x181d,%eax,%eax
  40142e:	89 44 24 18          	mov    %eax,0x18(%rsp)
  401432:	8b 44 24 0c          	mov    0xc(%rsp),%eax
  401436:	69 c0 29 49 00 00    	imul   $0x4929,%eax,%eax
  40143c:	89 44 24 0c          	mov    %eax,0xc(%rsp)
  401440:	8b 44 24 1c          	mov    0x1c(%rsp),%eax
  401444:	69 c0 79 93 00 00    	imul   $0x9379,%eax,%eax
  40144a:	89 44 24 1c          	mov    %eax,0x1c(%rsp)
  40144e:	8b 44 24 14          	mov    0x14(%rsp),%eax
  401452:	69 c0 02 34 00 00    	imul   $0x3402,%eax,%eax
  401458:	89 44 24 14          	mov    %eax,0x14(%rsp)
  40145c:	8b 44 24 08          	mov    0x8(%rsp),%eax
  401460:	69 c0 3d 63 00 00    	imul   $0x633d,%eax,%eax
  401466:	89 44 24 08          	mov    %eax,0x8(%rsp)
  40146a:	8b 44 24 04          	mov    0x4(%rsp),%eax
  40146e:	69 c0 24 e3 00 00    	imul   $0xe324,%eax,%eax
  401474:	89 44 24 04          	mov    %eax,0x4(%rsp)
  401478:	8b 44 24 14          	mov    0x14(%rsp),%eax
  40147c:	69 c0 51 5d 00 00    	imul   $0x5d51,%eax,%eax
  401482:	89 44 24 14          	mov    %eax,0x14(%rsp)
  401486:	8b 44 24 10          	mov    0x10(%rsp),%eax
  40148a:	69 c0 39 ad 00 00    	imul   $0xad39,%eax,%eax
  401490:	89 44 24 10          	mov    %eax,0x10(%rsp)
  401494:	8b 44 24 14          	mov    0x14(%rsp),%eax
  401498:	69 c0 b9 0d 00 00    	imul   $0xdb9,%eax,%eax
  40149e:	89 44 24 14          	mov    %eax,0x14(%rsp)
  4014a2:	8b 44 24 14          	mov    0x14(%rsp),%eax
  4014a6:	69 c0 61 b9 00 00    	imul   $0xb961,%eax,%eax
  4014ac:	89 44 24 14          	mov    %eax,0x14(%rsp)
  4014b0:	8b 44 24 0c          	mov    0xc(%rsp),%eax
  4014b4:	69 c0 af 97 00 00    	imul   $0x97af,%eax,%eax
  4014ba:	89 44 24 0c          	mov    %eax,0xc(%rsp)
  4014be:	8b 44 24 04          	mov    0x4(%rsp),%eax
  4014c2:	69 c0 c7 fd 00 00    	imul   $0xfdc7,%eax,%eax
  4014c8:	89 44 24 04          	mov    %eax,0x4(%rsp)
  4014cc:	8b 44 24 24          	mov    0x24(%rsp),%eax
  4014d0:	69 c0 4c 94 00 00    	imul   $0x944c,%eax,%eax
  4014d6:	89 44 24 24          	mov    %eax,0x24(%rsp)
  4014da:	8b 44 24 0c          	mov    0xc(%rsp),%eax
  4014de:	69 c0 a2 a5 00 00    	imul   $0xa5a2,%eax,%eax
  4014e4:	89 44 24 0c          	mov    %eax,0xc(%rsp)
  4014e8:	8b 44 24 04          	mov    0x4(%rsp),%eax
  4014ec:	69 c0 a3 aa 00 00    	imul   $0xaaa3,%eax,%eax
  4014f2:	89 44 24 04          	mov    %eax,0x4(%rsp)
  4014f6:	8b 44 24 0c          	mov    0xc(%rsp),%eax
  4014fa:	89 c2                	mov    %eax,%edx
  4014fc:	c1 e2 08             	shl    $0x8,%edx
  4014ff:	8d 04 42             	lea    (%rdx,%rax,2),%eax
  401502:	89 44 24 0c          	mov    %eax,0xc(%rsp)
  401506:	8b 44 24 20          	mov    0x20(%rsp),%eax
  40150a:	69 c0 63 e3 00 00    	imul   $0xe363,%eax,%eax
  401510:	89 44 24 20          	mov    %eax,0x20(%rsp)
  401514:	8b 44 24 0c          	mov    0xc(%rsp),%eax
  401518:	69 c0 32 ba 00 00    	imul   $0xba32,%eax,%eax
  40151e:	89 44 24 0c          	mov    %eax,0xc(%rsp)
  401522:	8b 44 24 18          	mov    0x18(%rsp),%eax
  401526:	69 c0 b7 65 00 00    	imul   $0x65b7,%eax,%eax
  40152c:	89 44 24 18          	mov    %eax,0x18(%rsp)
  401530:	8b 44 24 08          	mov    0x8(%rsp),%eax
  401534:	69 c0 6c 24 00 00    	imul   $0x246c,%eax,%eax
  40153a:	89 44 24 08          	mov    %eax,0x8(%rsp)
  40153e:	8b 04 24             	mov    (%rsp),%eax
  401541:	69 c0 f6 6b 00 00    	imul   $0x6bf6,%eax,%eax
  401547:	89 04 24             	mov    %eax,(%rsp)
  40154a:	8b 04 24             	mov    (%rsp),%eax
  40154d:	69 c0 fb 58 00 00    	imul   $0x58fb,%eax,%eax
  401553:	89 04 24             	mov    %eax,(%rsp)
  401556:	8b 44 24 18          	mov    0x18(%rsp),%eax
  40155a:	69 c0 c2 d9 00 00    	imul   $0xd9c2,%eax,%eax
  401560:	89 44 24 18          	mov    %eax,0x18(%rsp)
  401564:	8b 44 24 14          	mov    0x14(%rsp),%eax
  401568:	69 c0 6c 18 00 00    	imul   $0x186c,%eax,%eax
  40156e:	89 44 24 14          	mov    %eax,0x14(%rsp)
  401572:	8b 44 24 24          	mov    0x24(%rsp),%eax
  401576:	69 c0 75 4c 00 00    	imul   $0x4c75,%eax,%eax
  40157c:	89 44 24 24          	mov    %eax,0x24(%rsp)
  401580:	8b 44 24 04          	mov    0x4(%rsp),%eax
  401584:	69 c0 1e cb 00 00    	imul   $0xcb1e,%eax,%eax
  40158a:	89 44 24 04          	mov    %eax,0x4(%rsp)
  40158e:	8b 44 24 1c          	mov    0x1c(%rsp),%eax
  401592:	69 c0 79 10 00 00    	imul   $0x1079,%eax,%eax
  401598:	89 44 24 1c          	mov    %eax,0x1c(%rsp)
  40159c:	8b 44 24 1c          	mov    0x1c(%rsp),%eax
  4015a0:	69 c0 36 a2 00 00    	imul   $0xa236,%eax,%eax
  4015a6:	89 44 24 1c          	mov    %eax,0x1c(%rsp)
  4015aa:	8b 44 24 08          	mov    0x8(%rsp),%eax
  4015ae:	69 c0 17 be 00 00    	imul   $0xbe17,%eax,%eax
  4015b4:	89 44 24 08          	mov    %eax,0x8(%rsp)
  4015b8:	8b 04 24             	mov    (%rsp),%eax
  4015bb:	69 c0 20 b9 00 00    	imul   $0xb920,%eax,%eax
  4015c1:	89 04 24             	mov    %eax,(%rsp)
  4015c4:	8b 44 24 24          	mov    0x24(%rsp),%eax
  4015c8:	69 c0 c4 f1 00 00    	imul   $0xf1c4,%eax,%eax
  4015ce:	89 44 24 24          	mov    %eax,0x24(%rsp)
  4015d2:	8b 44 24 14          	mov    0x14(%rsp),%eax
  4015d6:	69 c0 7b 2b 00 00    	imul   $0x2b7b,%eax,%eax
  4015dc:	89 44 24 14          	mov    %eax,0x14(%rsp)
  4015e0:	8b 44 24 10          	mov    0x10(%rsp),%eax
  4015e4:	69 c0 4f 04 00 00    	imul   $0x44f,%eax,%eax
  4015ea:	89 44 24 10          	mov    %eax,0x10(%rsp)
  4015ee:	8b 44 24 10          	mov    0x10(%rsp),%eax
  4015f2:	69 c0 04 4c 00 00    	imul   $0x4c04,%eax,%eax
  4015f8:	89 44 24 10          	mov    %eax,0x10(%rsp)
  4015fc:	8b 44 24 24          	mov    0x24(%rsp),%eax
  401600:	69 c0 e2 d3 00 00    	imul   $0xd3e2,%eax,%eax
  401606:	89 44 24 24          	mov    %eax,0x24(%rsp)
  40160a:	8b 44 24 0c          	mov    0xc(%rsp),%eax
  40160e:	69 c0 fa 32 00 00    	imul   $0x32fa,%eax,%eax
  401614:	89 44 24 0c          	mov    %eax,0xc(%rsp)
  401618:	8b 44 24 08          	mov    0x8(%rsp),%eax
  40161c:	69 c0 01 78 00 00    	imul   $0x7801,%eax,%eax
  401622:	89 44 24 08          	mov    %eax,0x8(%rsp)
  401626:	8b 44 24 24          	mov    0x24(%rsp),%eax
  40162a:	69 c0 21 09 00 00    	imul   $0x921,%eax,%eax
  401630:	89 44 24 24          	mov    %eax,0x24(%rsp)
  401634:	8b 44 24 04          	mov    0x4(%rsp),%eax
  401638:	69 c0 2a 92 00 00    	imul   $0x922a,%eax,%eax
  40163e:	89 44 24 04          	mov    %eax,0x4(%rsp)
  401642:	8b 44 24 08          	mov    0x8(%rsp),%eax
  401646:	69 c0 3f 39 00 00    	imul   $0x393f,%eax,%eax
  40164c:	89 44 24 08          	mov    %eax,0x8(%rsp)
  401650:	8b 44 24 1c          	mov    0x1c(%rsp),%eax
  401654:	69 c0 5b f3 00 00    	imul   $0xf35b,%eax,%eax
  40165a:	89 44 24 1c          	mov    %eax,0x1c(%rsp)
  40165e:	8b 44 24 18          	mov    0x18(%rsp),%eax
  401662:	69 c0 c5 c2 00 00    	imul   $0xc2c5,%eax,%eax
  401668:	89 44 24 18          	mov    %eax,0x18(%rsp)
  40166c:	8b 44 24 14          	mov    0x14(%rsp),%eax
  401670:	69 c0 43 cd 00 00    	imul   $0xcd43,%eax,%eax
  401676:	89 44 24 14          	mov    %eax,0x14(%rsp)
  40167a:	8b 44 24 10          	mov    0x10(%rsp),%eax
  40167e:	69 c0 99 a8 00 00    	imul   $0xa899,%eax,%eax
  401684:	89 44 24 10          	mov    %eax,0x10(%rsp)
  401688:	8b 44 24 20          	mov    0x20(%rsp),%eax
  40168c:	69 c0 d4 ac 00 00    	imul   $0xacd4,%eax,%eax
  401692:	89 44 24 20          	mov    %eax,0x20(%rsp)
  401696:	8b 44 24 18          	mov    0x18(%rsp),%eax
  40169a:	69 c0 14 f4 00 00    	imul   $0xf414,%eax,%eax
  4016a0:	89 44 24 18          	mov    %eax,0x18(%rsp)
  4016a4:	8b 44 24 10          	mov    0x10(%rsp),%eax
  4016a8:	69 c0 dd 1b 00 00    	imul   $0x1bdd,%eax,%eax
  4016ae:	89 44 24 10          	mov    %eax,0x10(%rsp)
  4016b2:	8b 44 24 20          	mov    0x20(%rsp),%eax
  4016b6:	69 c0 bf 73 00 00    	imul   $0x73bf,%eax,%eax
  4016bc:	89 44 24 20          	mov    %eax,0x20(%rsp)
  4016c0:	8b 44 24 08          	mov    0x8(%rsp),%eax
  4016c4:	69 c0 3e 05 00 00    	imul   $0x53e,%eax,%eax
  4016ca:	89 44 24 08          	mov    %eax,0x8(%rsp)
  4016ce:	8b 04 24             	mov    (%rsp),%eax
  4016d1:	69 c0 32 8a 00 00    	imul   $0x8a32,%eax,%eax
  4016d7:	89 04 24             	mov    %eax,(%rsp)
  4016da:	8b 04 24             	mov    (%rsp),%eax
  4016dd:	69 c0 35 30 00 00    	imul   $0x3035,%eax,%eax
  4016e3:	89 04 24             	mov    %eax,(%rsp)
  4016e6:	8b 44 24 10          	mov    0x10(%rsp),%eax
  4016ea:	69 c0 f9 18 00 00    	imul   $0x18f9,%eax,%eax
  4016f0:	89 44 24 10          	mov    %eax,0x10(%rsp)
  4016f4:	8b 44 24 20          	mov    0x20(%rsp),%eax
  4016f8:	69 c0 22 49 00 00    	imul   $0x4922,%eax,%eax
  4016fe:	89 44 24 20          	mov    %eax,0x20(%rsp)
  401702:	8b 44 24 0c          	mov    0xc(%rsp),%eax
  401706:	69 c0 fa f9 00 00    	imul   $0xf9fa,%eax,%eax
  40170c:	89 44 24 0c          	mov    %eax,0xc(%rsp)
  401710:	8b 44 24 24          	mov    0x24(%rsp),%eax
  401714:	69 c0 a8 43 00 00    	imul   $0x43a8,%eax,%eax
  40171a:	89 44 24 24          	mov    %eax,0x24(%rsp)
  40171e:	8b 44 24 14          	mov    0x14(%rsp),%eax
  401722:	69 c0 ed b9 00 00    	imul   $0xb9ed,%eax,%eax
  401728:	89 44 24 14          	mov    %eax,0x14(%rsp)
  40172c:	8b 04 24             	mov    (%rsp),%eax
  40172f:	69 c0 96 37 00 00    	imul   $0x3796,%eax,%eax
  401735:	89 04 24             	mov    %eax,(%rsp)
  401738:	8b 44 24 14          	mov    0x14(%rsp),%eax
  40173c:	69 c0 d7 3a 00 00    	imul   $0x3ad7,%eax,%eax
  401742:	89 44 24 14          	mov    %eax,0x14(%rsp)
  401746:	8b 44 24 18          	mov    0x18(%rsp),%eax
  40174a:	69 c0 ad e1 00 00    	imul   $0xe1ad,%eax,%eax
  401750:	89 44 24 18          	mov    %eax,0x18(%rsp)
  401754:	8b 44 24 1c          	mov    0x1c(%rsp),%eax
  401758:	69 c0 33 90 00 00    	imul   $0x9033,%eax,%eax
  40175e:	89 44 24 1c          	mov    %eax,0x1c(%rsp)
  401762:	8b 44 24 20          	mov    0x20(%rsp),%eax
  401766:	69 c0 2a 45 00 00    	imul   $0x452a,%eax,%eax
  40176c:	89 44 24 20          	mov    %eax,0x20(%rsp)
  401770:	8b 44 24 14          	mov    0x14(%rsp),%eax
  401774:	69 c0 19 2d 00 00    	imul   $0x2d19,%eax,%eax
  40177a:	89 44 24 14          	mov    %eax,0x14(%rsp)
  40177e:	8b 44 24 24          	mov    0x24(%rsp),%eax
  401782:	69 c0 d8 a3 00 00    	imul   $0xa3d8,%eax,%eax
  401788:	89 44 24 24          	mov    %eax,0x24(%rsp)
  40178c:	8b 44 24 08          	mov    0x8(%rsp),%eax
  401790:	69 c0 33 81 00 00    	imul   $0x8133,%eax,%eax
  401796:	89 44 24 08          	mov    %eax,0x8(%rsp)
  40179a:	8b 44 24 24          	mov    0x24(%rsp),%eax
  40179e:	69 c0 9d 60 00 00    	imul   $0x609d,%eax,%eax
  4017a4:	89 44 24 24          	mov    %eax,0x24(%rsp)
  4017a8:	8b 44 24 18          	mov    0x18(%rsp),%eax
  4017ac:	69 c0 36 82 00 00    	imul   $0x8236,%eax,%eax
  4017b2:	89 44 24 18          	mov    %eax,0x18(%rsp)
  4017b6:	8b 44 24 20          	mov    0x20(%rsp),%eax
  4017ba:	69 c0 92 c8 00 00    	imul   $0xc892,%eax,%eax
  4017c0:	89 44 24 20          	mov    %eax,0x20(%rsp)
  4017c4:	8b 44 24 10          	mov    0x10(%rsp),%eax
  4017c8:	69 c0 08 39 00 00    	imul   $0x3908,%eax,%eax
  4017ce:	89 44 24 10          	mov    %eax,0x10(%rsp)
  4017d2:	8b 44 24 10          	mov    0x10(%rsp),%eax
  4017d6:	69 c0 4a bd 00 00    	imul   $0xbd4a,%eax,%eax
  4017dc:	89 44 24 10          	mov    %eax,0x10(%rsp)
  4017e0:	8b 04 24             	mov    (%rsp),%eax
  4017e3:	69 c0 01 ed 00 00    	imul   $0xed01,%eax,%eax
  4017e9:	89 04 24             	mov    %eax,(%rsp)
  4017ec:	8b 44 24 18          	mov    0x18(%rsp),%eax
  4017f0:	69 c0 3b 66 00 00    	imul   $0x663b,%eax,%eax
  4017f6:	89 44 24 18          	mov    %eax,0x18(%rsp)
  4017fa:	8b 44 24 10          	mov    0x10(%rsp),%eax
  4017fe:	69 c0 f5 37 00 00    	imul   $0x37f5,%eax,%eax
  401804:	89 44 24 10          	mov    %eax,0x10(%rsp)
  401808:	8b 44 24 18          	mov    0x18(%rsp),%eax
  40180c:	69 c0 a0 23 00 00    	imul   $0x23a0,%eax,%eax
  401812:	89 44 24 18          	mov    %eax,0x18(%rsp)
  401816:	8b 44 24 10          	mov    0x10(%rsp),%eax
  40181a:	69 c0 ab a2 00 00    	imul   $0xa2ab,%eax,%eax
  401820:	89 44 24 10          	mov    %eax,0x10(%rsp)
  401824:	8b 44 24 0c          	mov    0xc(%rsp),%eax
  401828:	69 c0 3d 56 00 00    	imul   $0x563d,%eax,%eax
  40182e:	89 44 24 0c          	mov    %eax,0xc(%rsp)
  401832:	8b 44 24 24          	mov    0x24(%rsp),%eax
  401836:	69 c0 cf 93 00 00    	imul   $0x93cf,%eax,%eax
  40183c:	89 44 24 24          	mov    %eax,0x24(%rsp)
  401840:	8b 44 24 1c          	mov    0x1c(%rsp),%eax
  401844:	69 c0 27 b7 00 00    	imul   $0xb727,%eax,%eax
  40184a:	89 44 24 1c          	mov    %eax,0x1c(%rsp)
  40184e:	8b 44 24 1c          	mov    0x1c(%rsp),%eax
  401852:	69 c0 6f fc 00 00    	imul   $0xfc6f,%eax,%eax
  401858:	89 44 24 1c          	mov    %eax,0x1c(%rsp)
  40185c:	ba 00 00 00 00       	mov    $0x0,%edx
  401861:	b8 00 00 00 00       	mov    $0x0,%eax
  401866:	eb 0a                	jmp    401872 <scramble+0x4e3>
  401868:	89 d1                	mov    %edx,%ecx
  40186a:	8b 0c 8c             	mov    (%rsp,%rcx,4),%ecx
  40186d:	01 c8                	add    %ecx,%eax
  40186f:	83 c2 01             	add    $0x1,%edx
  401872:	83 fa 09             	cmp    $0x9,%edx
  401875:	76 f1                	jbe    401868 <scramble+0x4d9>
  401877:	48 8b 74 24 28       	mov    0x28(%rsp),%rsi
  40187c:	64 48 33 34 25 28 00 	xor    %fs:0x28,%rsi
  401883:	00 00 
  401885:	74 05                	je     40188c <scramble+0x4fd>
  401887:	e8 64 f4 ff ff       	call   400cf0 <__stack_chk_fail@plt>
  40188c:	48 83 c4 38          	add    $0x38,%rsp
  401890:	c3                   	ret    

0000000000401891 <getbuf>:
  401891:	48 83 ec 28          	sub    $0x28,%rsp
  401895:	48 89 e7             	mov    %rsp,%rdi
  401898:	e8 a0 02 00 00       	call   401b3d <Gets>  # gets the input (after executes, the input is on the stack
  40189d:	b8 01 00 00 00       	mov    $0x1,%eax
  4018a2:	48 83 c4 28          	add    $0x28,%rsp
  4018a6:	c3                   	ret    

00000000004018a7 <touch1>:
  4018a7:	48 83 ec 08          	sub    $0x8,%rsp
  4018ab:	c7 05 67 3c 20 00 01 	movl   $0x1,0x203c67(%rip)        # 60551c <vlevel>
  4018b2:	00 00 00 
  4018b5:	bf 1e 33 40 00       	mov    $0x40331e,%edi
  4018ba:	e8 11 f4 ff ff       	call   400cd0 <puts@plt>
  4018bf:	bf 01 00 00 00       	mov    $0x1,%edi
  4018c4:	e8 b9 04 00 00       	call   401d82 <validate>
  4018c9:	bf 00 00 00 00       	mov    $0x0,%edi
  4018ce:	e8 7d f5 ff ff       	call   400e50 <exit@plt>

00000000004018d3 <touch2>:
  4018d3:	48 83 ec 08          	sub    $0x8,%rsp
  4018d7:	89 fa                	mov    %edi,%edx
  4018d9:	c7 05 39 3c 20 00 02 	movl   $0x2,0x203c39(%rip)        # 60551c <vlevel>
  4018e0:	00 00 00 
  4018e3:	39 3d 3b 3c 20 00    	cmp    %edi,0x203c3b(%rip)        # 605524 <cookie>
  4018e9:	75 20                	jne    40190b <touch2+0x38>
  4018eb:	be 40 33 40 00       	mov    $0x403340,%esi
  4018f0:	bf 01 00 00 00       	mov    $0x1,%edi
  4018f5:	b8 00 00 00 00       	mov    $0x0,%eax
  4018fa:	e8 01 f5 ff ff       	call   400e00 <__printf_chk@plt>
  4018ff:	bf 02 00 00 00       	mov    $0x2,%edi
  401904:	e8 79 04 00 00       	call   401d82 <validate>
  401909:	eb 1e                	jmp    401929 <touch2+0x56>
  40190b:	be 68 33 40 00       	mov    $0x403368,%esi
  401910:	bf 01 00 00 00       	mov    $0x1,%edi
  401915:	b8 00 00 00 00       	mov    $0x0,%eax
  40191a:	e8 e1 f4 ff ff       	call   400e00 <__printf_chk@plt>
  40191f:	bf 02 00 00 00       	mov    $0x2,%edi
  401924:	e8 35 05 00 00       	call   401e5e <fail>
  401929:	bf 00 00 00 00       	mov    $0x0,%edi
  40192e:	e8 1d f5 ff ff       	call   400e50 <exit@plt>

0000000000401933 <hexmatch>:
  401933:	55                   	push   %rbp
  401934:	53                   	push   %rbx
  401935:	48 81 ec 88 00 00 00 	sub    $0x88,%rsp
  40193c:	89 fb                	mov    %edi,%ebx
  40193e:	48 89 f5             	mov    %rsi,%rbp
  401941:	64 48 8b 04 25 28 00 	mov    %fs:0x28,%rax
  401948:	00 00 
  40194a:	48 89 44 24 78       	mov    %rax,0x78(%rsp)
  40194f:	31 c0                	xor    %eax,%eax
  401951:	e8 6a f4 ff ff       	call   400dc0 <random@plt>
  401956:	48 89 c1             	mov    %rax,%rcx
  401959:	48 ba 0b d7 a3 70 3d 	movabs $0xa3d70a3d70a3d70b,%rdx
  401960:	0a d7 a3 
  401963:	48 f7 ea             	imul   %rdx
  401966:	48 01 ca             	add    %rcx,%rdx
  401969:	48 c1 fa 06          	sar    $0x6,%rdx
  40196d:	48 89 c8             	mov    %rcx,%rax
  401970:	48 c1 f8 3f          	sar    $0x3f,%rax
  401974:	48 29 c2             	sub    %rax,%rdx
  401977:	48 8d 04 92          	lea    (%rdx,%rdx,4),%rax
  40197b:	48 8d 14 80          	lea    (%rax,%rax,4),%rdx
  40197f:	48 8d 04 95 00 00 00 	lea    0x0(,%rdx,4),%rax
  401986:	00 
  401987:	48 89 ca             	mov    %rcx,%rdx
  40198a:	48 29 c2             	sub    %rax,%rdx
  40198d:	48 8d 34 14          	lea    (%rsp,%rdx,1),%rsi
  401991:	c6 46 08 00          	movb   $0x0,0x8(%rsi)
  401995:	ba 07 00 00 00       	mov    $0x7,%edx
  40199a:	eb 31                	jmp    4019cd <hexmatch+0x9a>
  40199c:	8d 0c 95 00 00 00 00 	lea    0x0(,%rdx,4),%ecx
  4019a3:	89 d8                	mov    %ebx,%eax
  4019a5:	d3 e8                	shr    %cl,%eax
  4019a7:	83 e0 0f             	and    $0xf,%eax
  4019aa:	3c 09                	cmp    $0x9,%al
  4019ac:	77 0f                	ja     4019bd <hexmatch+0x8a>
  4019ae:	b9 07 00 00 00       	mov    $0x7,%ecx
  4019b3:	29 d1                	sub    %edx,%ecx
  4019b5:	83 c0 30             	add    $0x30,%eax
  4019b8:	88 04 0e             	mov    %al,(%rsi,%rcx,1)
  4019bb:	eb 0d                	jmp    4019ca <hexmatch+0x97>
  4019bd:	b9 07 00 00 00       	mov    $0x7,%ecx
  4019c2:	29 d1                	sub    %edx,%ecx
  4019c4:	83 c0 57             	add    $0x57,%eax
  4019c7:	88 04 0e             	mov    %al,(%rsi,%rcx,1)
  4019ca:	83 ea 01             	sub    $0x1,%edx
  4019cd:	83 fa 07             	cmp    $0x7,%edx
  4019d0:	76 ca                	jbe    40199c <hexmatch+0x69>
  4019d2:	ba 09 00 00 00       	mov    $0x9,%edx
  4019d7:	48 89 ef             	mov    %rbp,%rdi
  4019da:	e8 d1 f2 ff ff       	call   400cb0 <strncmp@plt>
  4019df:	85 c0                	test   %eax,%eax
  4019e1:	0f 94 c0             	sete   %al
  4019e4:	0f b6 c0             	movzbl %al,%eax
  4019e7:	48 8b 7c 24 78       	mov    0x78(%rsp),%rdi
  4019ec:	64 48 33 3c 25 28 00 	xor    %fs:0x28,%rdi
  4019f3:	00 00 
  4019f5:	74 05                	je     4019fc <hexmatch+0xc9>
  4019f7:	e8 f4 f2 ff ff       	call   400cf0 <__stack_chk_fail@plt>
  4019fc:	48 81 c4 88 00 00 00 	add    $0x88,%rsp
  401a03:	5b                   	pop    %rbx
  401a04:	5d                   	pop    %rbp
  401a05:	c3                   	ret    

0000000000401a06 <touch3>:
  401a06:	53                   	push   %rbx
  401a07:	48 89 fb             	mov    %rdi,%rbx
  401a0a:	c7 05 08 3b 20 00 03 	movl   $0x3,0x203b08(%rip)        # 60551c <vlevel>
  401a11:	00 00 00 
  401a14:	48 89 fe             	mov    %rdi,%rsi
  401a17:	8b 3d 07 3b 20 00    	mov    0x203b07(%rip),%edi        # 605524 <cookie>
  401a1d:	e8 11 ff ff ff       	call   401933 <hexmatch>
  401a22:	85 c0                	test   %eax,%eax
  401a24:	74 23                	je     401a49 <touch3+0x43>
  401a26:	48 89 da             	mov    %rbx,%rdx
  401a29:	be 90 33 40 00       	mov    $0x403390,%esi
  401a2e:	bf 01 00 00 00       	mov    $0x1,%edi
  401a33:	b8 00 00 00 00       	mov    $0x0,%eax
  401a38:	e8 c3 f3 ff ff       	call   400e00 <__printf_chk@plt>
  401a3d:	bf 03 00 00 00       	mov    $0x3,%edi
  401a42:	e8 3b 03 00 00       	call   401d82 <validate>
  401a47:	eb 21                	jmp    401a6a <touch3+0x64>
  401a49:	48 89 da             	mov    %rbx,%rdx
  401a4c:	be b8 33 40 00       	mov    $0x4033b8,%esi
  401a51:	bf 01 00 00 00       	mov    $0x1,%edi
  401a56:	b8 00 00 00 00       	mov    $0x0,%eax
  401a5b:	e8 a0 f3 ff ff       	call   400e00 <__printf_chk@plt>
  401a60:	bf 03 00 00 00       	mov    $0x3,%edi
  401a65:	e8 f4 03 00 00       	call   401e5e <fail>
  401a6a:	bf 00 00 00 00       	mov    $0x0,%edi
  401a6f:	e8 dc f3 ff ff       	call   400e50 <exit@plt>

0000000000401a74 <test>:
  401a74:	48 83 ec 08          	sub    $0x8,%rsp
  401a78:	b8 00 00 00 00       	mov    $0x0,%eax
  401a7d:	e8 0f fe ff ff       	call   401891 <getbuf>
  401a82:	89 c2                	mov    %eax,%edx
  401a84:	be e0 33 40 00       	mov    $0x4033e0,%esi
  401a89:	bf 01 00 00 00       	mov    $0x1,%edi
  401a8e:	b8 00 00 00 00       	mov    $0x0,%eax
  401a93:	e8 68 f3 ff ff       	call   400e00 <__printf_chk@plt>
  401a98:	48 83 c4 08          	add    $0x8,%rsp
  401a9c:	c3                   	ret    

0000000000401a9d <save_char>:
  401a9d:	8b 05 a1 46 20 00    	mov    0x2046a1(%rip),%eax        # 606144 <gets_cnt>
  401aa3:	3d ff 03 00 00       	cmp    $0x3ff,%eax
  401aa8:	7f 49                	jg     401af3 <save_char+0x56>
  401aaa:	8d 14 40             	lea    (%rax,%rax,2),%edx
  401aad:	89 f9                	mov    %edi,%ecx
  401aaf:	c0 e9 04             	shr    $0x4,%cl
  401ab2:	83 e1 0f             	and    $0xf,%ecx
  401ab5:	0f b6 b1 00 37 40 00 	movzbl 0x403700(%rcx),%esi
  401abc:	48 63 ca             	movslq %edx,%rcx
  401abf:	40 88 b1 40 55 60 00 	mov    %sil,0x605540(%rcx)
  401ac6:	8d 4a 01             	lea    0x1(%rdx),%ecx
  401ac9:	83 e7 0f             	and    $0xf,%edi
  401acc:	0f b6 b7 00 37 40 00 	movzbl 0x403700(%rdi),%esi
  401ad3:	48 63 c9             	movslq %ecx,%rcx
  401ad6:	40 88 b1 40 55 60 00 	mov    %sil,0x605540(%rcx)
  401add:	83 c2 02             	add    $0x2,%edx
  401ae0:	48 63 d2             	movslq %edx,%rdx
  401ae3:	c6 82 40 55 60 00 20 	movb   $0x20,0x605540(%rdx)
  401aea:	83 c0 01             	add    $0x1,%eax
  401aed:	89 05 51 46 20 00    	mov    %eax,0x204651(%rip)        # 606144 <gets_cnt>
  401af3:	f3 c3                	repz ret 

0000000000401af5 <save_term>:
  401af5:	8b 05 49 46 20 00    	mov    0x204649(%rip),%eax        # 606144 <gets_cnt>
  401afb:	8d 04 40             	lea    (%rax,%rax,2),%eax
  401afe:	48 98                	cltq   
  401b00:	c6 80 40 55 60 00 00 	movb   $0x0,0x605540(%rax)
  401b07:	c3                   	ret    

0000000000401b08 <check_fail>:
  401b08:	48 83 ec 08          	sub    $0x8,%rsp
  401b0c:	0f be 15 35 46 20 00 	movsbl 0x204635(%rip),%edx        # 606148 <target_prefix>
  401b13:	41 b8 40 55 60 00    	mov    $0x605540,%r8d
  401b19:	8b 0d f9 39 20 00    	mov    0x2039f9(%rip),%ecx        # 605518 <check_level>
  401b1f:	be 03 34 40 00       	mov    $0x403403,%esi
  401b24:	bf 01 00 00 00       	mov    $0x1,%edi
  401b29:	b8 00 00 00 00       	mov    $0x0,%eax
  401b2e:	e8 cd f2 ff ff       	call   400e00 <__printf_chk@plt>
  401b33:	bf 01 00 00 00       	mov    $0x1,%edi
  401b38:	e8 13 f3 ff ff       	call   400e50 <exit@plt>

0000000000401b3d <Gets>:
  401b3d:	41 54                	push   %r12
  401b3f:	55                   	push   %rbp
  401b40:	53                   	push   %rbx
  401b41:	49 89 fc             	mov    %rdi,%r12
  401b44:	c7 05 f6 45 20 00 00 	movl   $0x0,0x2045f6(%rip)        # 606144 <gets_cnt>
  401b4b:	00 00 00 
  401b4e:	48 89 fb             	mov    %rdi,%rbx
  401b51:	eb 11                	jmp    401b64 <Gets+0x27>
  401b53:	48 8d 6b 01          	lea    0x1(%rbx),%rbp
  401b57:	88 03                	mov    %al,(%rbx)
  401b59:	0f b6 f8             	movzbl %al,%edi
  401b5c:	e8 3c ff ff ff       	call   401a9d <save_char>
  401b61:	48 89 eb             	mov    %rbp,%rbx
  401b64:	48 8b 3d a5 39 20 00 	mov    0x2039a5(%rip),%rdi        # 605510 <infile>
  401b6b:	e8 60 f2 ff ff       	call   400dd0 <_IO_getc@plt>
  401b70:	83 f8 ff             	cmp    $0xffffffff,%eax
  401b73:	74 05                	je     401b7a <Gets+0x3d>
  401b75:	83 f8 0a             	cmp    $0xa,%eax
  401b78:	75 d9                	jne    401b53 <Gets+0x16>
  401b7a:	c6 03 00             	movb   $0x0,(%rbx)
  401b7d:	b8 00 00 00 00       	mov    $0x0,%eax
  401b82:	e8 6e ff ff ff       	call   401af5 <save_term>
  401b87:	4c 89 e0             	mov    %r12,%rax
  401b8a:	5b                   	pop    %rbx
  401b8b:	5d                   	pop    %rbp
  401b8c:	41 5c                	pop    %r12
  401b8e:	c3                   	ret    

0000000000401b8f <notify_server>:
  401b8f:	53                   	push   %rbx
  401b90:	48 81 ec 10 40 00 00 	sub    $0x4010,%rsp
  401b97:	64 48 8b 04 25 28 00 	mov    %fs:0x28,%rax
  401b9e:	00 00 
  401ba0:	48 89 84 24 08 40 00 	mov    %rax,0x4008(%rsp)
  401ba7:	00 
  401ba8:	31 c0                	xor    %eax,%eax
  401baa:	83 3d 77 39 20 00 00 	cmpl   $0x0,0x203977(%rip)        # 605528 <is_checker>
  401bb1:	0f 85 aa 01 00 00    	jne    401d61 <notify_server+0x1d2>
  401bb7:	89 fb                	mov    %edi,%ebx
  401bb9:	8b 05 85 45 20 00    	mov    0x204585(%rip),%eax        # 606144 <gets_cnt>
  401bbf:	83 c0 64             	add    $0x64,%eax
  401bc2:	3d 00 20 00 00       	cmp    $0x2000,%eax
  401bc7:	7e 1e                	jle    401be7 <notify_server+0x58>
  401bc9:	be 38 35 40 00       	mov    $0x403538,%esi
  401bce:	bf 01 00 00 00       	mov    $0x1,%edi
  401bd3:	b8 00 00 00 00       	mov    $0x0,%eax
  401bd8:	e8 23 f2 ff ff       	call   400e00 <__printf_chk@plt>
  401bdd:	bf 01 00 00 00       	mov    $0x1,%edi
  401be2:	e8 69 f2 ff ff       	call   400e50 <exit@plt>
  401be7:	0f be 05 5a 45 20 00 	movsbl 0x20455a(%rip),%eax        # 606148 <target_prefix>
  401bee:	83 3d b3 38 20 00 00 	cmpl   $0x0,0x2038b3(%rip)        # 6054a8 <notify>
  401bf5:	74 08                	je     401bff <notify_server+0x70>
  401bf7:	8b 15 23 39 20 00    	mov    0x203923(%rip),%edx        # 605520 <authkey>
  401bfd:	eb 05                	jmp    401c04 <notify_server+0x75>
  401bff:	ba ff ff ff ff       	mov    $0xffffffff,%edx
  401c04:	85 db                	test   %ebx,%ebx
  401c06:	74 08                	je     401c10 <notify_server+0x81>
  401c08:	41 b9 19 34 40 00    	mov    $0x403419,%r9d
  401c0e:	eb 06                	jmp    401c16 <notify_server+0x87>
  401c10:	41 b9 1e 34 40 00    	mov    $0x40341e,%r9d
  401c16:	68 40 55 60 00       	push   $0x605540
  401c1b:	56                   	push   %rsi
  401c1c:	50                   	push   %rax
  401c1d:	52                   	push   %rdx
  401c1e:	44 8b 05 43 35 20 00 	mov    0x203543(%rip),%r8d        # 605168 <target_id>
  401c25:	b9 23 34 40 00       	mov    $0x403423,%ecx
  401c2a:	ba 00 20 00 00       	mov    $0x2000,%edx
  401c2f:	be 01 00 00 00       	mov    $0x1,%esi
  401c34:	48 8d 7c 24 20       	lea    0x20(%rsp),%rdi
  401c39:	b8 00 00 00 00       	mov    $0x0,%eax
  401c3e:	e8 3d f2 ff ff       	call   400e80 <__sprintf_chk@plt>
  401c43:	48 83 c4 20          	add    $0x20,%rsp
  401c47:	83 3d 5a 38 20 00 00 	cmpl   $0x0,0x20385a(%rip)        # 6054a8 <notify>
  401c4e:	0f 84 81 00 00 00    	je     401cd5 <notify_server+0x146>
  401c54:	85 db                	test   %ebx,%ebx
  401c56:	74 6e                	je     401cc6 <notify_server+0x137>
  401c58:	4c 8d 8c 24 00 20 00 	lea    0x2000(%rsp),%r9
  401c5f:	00 
  401c60:	41 b8 00 00 00 00    	mov    $0x0,%r8d
  401c66:	48 89 e1             	mov    %rsp,%rcx
  401c69:	48 8b 15 00 35 20 00 	mov    0x203500(%rip),%rdx        # 605170 <lab>
  401c70:	48 8b 35 01 35 20 00 	mov    0x203501(%rip),%rsi        # 605178 <course>
  401c77:	48 8b 3d e2 34 20 00 	mov    0x2034e2(%rip),%rdi        # 605160 <user_id>
  401c7e:	e8 09 11 00 00       	call   402d8c <driver_post>
  401c83:	85 c0                	test   %eax,%eax
  401c85:	79 26                	jns    401cad <notify_server+0x11e>
  401c87:	48 8d 94 24 00 20 00 	lea    0x2000(%rsp),%rdx
  401c8e:	00 
  401c8f:	be 3f 34 40 00       	mov    $0x40343f,%esi
  401c94:	bf 01 00 00 00       	mov    $0x1,%edi
  401c99:	b8 00 00 00 00       	mov    $0x0,%eax
  401c9e:	e8 5d f1 ff ff       	call   400e00 <__printf_chk@plt>
  401ca3:	bf 01 00 00 00       	mov    $0x1,%edi
  401ca8:	e8 a3 f1 ff ff       	call   400e50 <exit@plt>
  401cad:	bf 68 35 40 00       	mov    $0x403568,%edi
  401cb2:	e8 19 f0 ff ff       	call   400cd0 <puts@plt>
  401cb7:	bf 4b 34 40 00       	mov    $0x40344b,%edi
  401cbc:	e8 0f f0 ff ff       	call   400cd0 <puts@plt>
  401cc1:	e9 9b 00 00 00       	jmp    401d61 <notify_server+0x1d2>
  401cc6:	bf 55 34 40 00       	mov    $0x403455,%edi
  401ccb:	e8 00 f0 ff ff       	call   400cd0 <puts@plt>
  401cd0:	e9 8c 00 00 00       	jmp    401d61 <notify_server+0x1d2>
  401cd5:	85 db                	test   %ebx,%ebx
  401cd7:	74 07                	je     401ce0 <notify_server+0x151>
  401cd9:	ba 19 34 40 00       	mov    $0x403419,%edx
  401cde:	eb 05                	jmp    401ce5 <notify_server+0x156>
  401ce0:	ba 1e 34 40 00       	mov    $0x40341e,%edx
  401ce5:	be a0 35 40 00       	mov    $0x4035a0,%esi
  401cea:	bf 01 00 00 00       	mov    $0x1,%edi
  401cef:	b8 00 00 00 00       	mov    $0x0,%eax
  401cf4:	e8 07 f1 ff ff       	call   400e00 <__printf_chk@plt>
  401cf9:	48 8b 15 60 34 20 00 	mov    0x203460(%rip),%rdx        # 605160 <user_id>
  401d00:	be 5c 34 40 00       	mov    $0x40345c,%esi
  401d05:	bf 01 00 00 00       	mov    $0x1,%edi
  401d0a:	b8 00 00 00 00       	mov    $0x0,%eax
  401d0f:	e8 ec f0 ff ff       	call   400e00 <__printf_chk@plt>
  401d14:	48 8b 15 5d 34 20 00 	mov    0x20345d(%rip),%rdx        # 605178 <course>
  401d1b:	be 69 34 40 00       	mov    $0x403469,%esi
  401d20:	bf 01 00 00 00       	mov    $0x1,%edi
  401d25:	b8 00 00 00 00       	mov    $0x0,%eax
  401d2a:	e8 d1 f0 ff ff       	call   400e00 <__printf_chk@plt>
  401d2f:	48 8b 15 3a 34 20 00 	mov    0x20343a(%rip),%rdx        # 605170 <lab>
  401d36:	be 75 34 40 00       	mov    $0x403475,%esi
  401d3b:	bf 01 00 00 00       	mov    $0x1,%edi
  401d40:	b8 00 00 00 00       	mov    $0x0,%eax
  401d45:	e8 b6 f0 ff ff       	call   400e00 <__printf_chk@plt>
  401d4a:	48 89 e2             	mov    %rsp,%rdx
  401d4d:	be 7e 34 40 00       	mov    $0x40347e,%esi
  401d52:	bf 01 00 00 00       	mov    $0x1,%edi
  401d57:	b8 00 00 00 00       	mov    $0x0,%eax
  401d5c:	e8 9f f0 ff ff       	call   400e00 <__printf_chk@plt>
  401d61:	48 8b 84 24 08 40 00 	mov    0x4008(%rsp),%rax
  401d68:	00 
  401d69:	64 48 33 04 25 28 00 	xor    %fs:0x28,%rax
  401d70:	00 00 
  401d72:	74 05                	je     401d79 <notify_server+0x1ea>
  401d74:	e8 77 ef ff ff       	call   400cf0 <__stack_chk_fail@plt>
  401d79:	48 81 c4 10 40 00 00 	add    $0x4010,%rsp
  401d80:	5b                   	pop    %rbx
  401d81:	c3                   	ret    

0000000000401d82 <validate>:
  401d82:	4c 8d 54 24 08       	lea    0x8(%rsp),%r10
  401d87:	48 83 e4 f0          	and    $0xfffffffffffffff0,%rsp
  401d8b:	41 ff 72 f8          	push   -0x8(%r10)
  401d8f:	55                   	push   %rbp
  401d90:	48 89 e5             	mov    %rsp,%rbp
  401d93:	41 52                	push   %r10
  401d95:	53                   	push   %rbx
  401d96:	89 fb                	mov    %edi,%ebx
  401d98:	83 3d 89 37 20 00 00 	cmpl   $0x0,0x203789(%rip)        # 605528 <is_checker>
  401d9f:	74 6b                	je     401e0c <validate+0x8a>
  401da1:	39 3d 75 37 20 00    	cmp    %edi,0x203775(%rip)        # 60551c <vlevel>
  401da7:	74 14                	je     401dbd <validate+0x3b>
  401da9:	bf 8a 34 40 00       	mov    $0x40348a,%edi
  401dae:	e8 1d ef ff ff       	call   400cd0 <puts@plt>
  401db3:	b8 00 00 00 00       	mov    $0x0,%eax
  401db8:	e8 4b fd ff ff       	call   401b08 <check_fail>
  401dbd:	8b 15 55 37 20 00    	mov    0x203755(%rip),%edx        # 605518 <check_level>
  401dc3:	39 d7                	cmp    %edx,%edi
  401dc5:	74 20                	je     401de7 <validate+0x65>
  401dc7:	89 f9                	mov    %edi,%ecx
  401dc9:	be c8 35 40 00       	mov    $0x4035c8,%esi
  401dce:	bf 01 00 00 00       	mov    $0x1,%edi
  401dd3:	b8 00 00 00 00       	mov    $0x0,%eax
  401dd8:	e8 23 f0 ff ff       	call   400e00 <__printf_chk@plt>
  401ddd:	b8 00 00 00 00       	mov    $0x0,%eax
  401de2:	e8 21 fd ff ff       	call   401b08 <check_fail>
  401de7:	0f be 15 5a 43 20 00 	movsbl 0x20435a(%rip),%edx        # 606148 <target_prefix>
  401dee:	41 b8 40 55 60 00    	mov    $0x605540,%r8d
  401df4:	89 f9                	mov    %edi,%ecx
  401df6:	be a8 34 40 00       	mov    $0x4034a8,%esi
  401dfb:	bf 01 00 00 00       	mov    $0x1,%edi
  401e00:	b8 00 00 00 00       	mov    $0x0,%eax
  401e05:	e8 f6 ef ff ff       	call   400e00 <__printf_chk@plt>
  401e0a:	eb 49                	jmp    401e55 <validate+0xd3>
  401e0c:	3b 3d 0a 37 20 00    	cmp    0x20370a(%rip),%edi        # 60551c <vlevel>
  401e12:	74 18                	je     401e2c <validate+0xaa>
  401e14:	bf 8a 34 40 00       	mov    $0x40348a,%edi
  401e19:	e8 b2 ee ff ff       	call   400cd0 <puts@plt>
  401e1e:	89 de                	mov    %ebx,%esi
  401e20:	bf 00 00 00 00       	mov    $0x0,%edi
  401e25:	e8 65 fd ff ff       	call   401b8f <notify_server>
  401e2a:	eb 29                	jmp    401e55 <validate+0xd3>
  401e2c:	0f be 0d 15 43 20 00 	movsbl 0x204315(%rip),%ecx        # 606148 <target_prefix>
  401e33:	89 fa                	mov    %edi,%edx
  401e35:	be f0 35 40 00       	mov    $0x4035f0,%esi
  401e3a:	bf 01 00 00 00       	mov    $0x1,%edi
  401e3f:	b8 00 00 00 00       	mov    $0x0,%eax
  401e44:	e8 b7 ef ff ff       	call   400e00 <__printf_chk@plt>
  401e49:	89 de                	mov    %ebx,%esi
  401e4b:	bf 01 00 00 00       	mov    $0x1,%edi
  401e50:	e8 3a fd ff ff       	call   401b8f <notify_server>
  401e55:	5b                   	pop    %rbx
  401e56:	41 5a                	pop    %r10
  401e58:	5d                   	pop    %rbp
  401e59:	49 8d 62 f8          	lea    -0x8(%r10),%rsp
  401e5d:	c3                   	ret    

0000000000401e5e <fail>:
  401e5e:	48 83 ec 08          	sub    $0x8,%rsp
  401e62:	83 3d bf 36 20 00 00 	cmpl   $0x0,0x2036bf(%rip)        # 605528 <is_checker>
  401e69:	74 0a                	je     401e75 <fail+0x17>
  401e6b:	b8 00 00 00 00       	mov    $0x0,%eax
  401e70:	e8 93 fc ff ff       	call   401b08 <check_fail>
  401e75:	89 fe                	mov    %edi,%esi
  401e77:	bf 00 00 00 00       	mov    $0x0,%edi
  401e7c:	e8 0e fd ff ff       	call   401b8f <notify_server>
  401e81:	48 83 c4 08          	add    $0x8,%rsp
  401e85:	c3                   	ret    

0000000000401e86 <bushandler>:
  401e86:	48 83 ec 08          	sub    $0x8,%rsp
  401e8a:	83 3d 97 36 20 00 00 	cmpl   $0x0,0x203697(%rip)        # 605528 <is_checker>
  401e91:	74 14                	je     401ea7 <bushandler+0x21>
  401e93:	bf bd 34 40 00       	mov    $0x4034bd,%edi
  401e98:	e8 33 ee ff ff       	call   400cd0 <puts@plt>
  401e9d:	b8 00 00 00 00       	mov    $0x0,%eax
  401ea2:	e8 61 fc ff ff       	call   401b08 <check_fail>
  401ea7:	bf 28 36 40 00       	mov    $0x403628,%edi
  401eac:	e8 1f ee ff ff       	call   400cd0 <puts@plt>
  401eb1:	bf c7 34 40 00       	mov    $0x4034c7,%edi
  401eb6:	e8 15 ee ff ff       	call   400cd0 <puts@plt>
  401ebb:	be 00 00 00 00       	mov    $0x0,%esi
  401ec0:	bf 00 00 00 00       	mov    $0x0,%edi
  401ec5:	e8 c5 fc ff ff       	call   401b8f <notify_server>
  401eca:	bf 01 00 00 00       	mov    $0x1,%edi
  401ecf:	e8 7c ef ff ff       	call   400e50 <exit@plt>

0000000000401ed4 <seghandler>:
  401ed4:	48 83 ec 08          	sub    $0x8,%rsp
  401ed8:	83 3d 49 36 20 00 00 	cmpl   $0x0,0x203649(%rip)        # 605528 <is_checker>
  401edf:	74 14                	je     401ef5 <seghandler+0x21>
  401ee1:	bf dd 34 40 00       	mov    $0x4034dd,%edi
  401ee6:	e8 e5 ed ff ff       	call   400cd0 <puts@plt>
  401eeb:	b8 00 00 00 00       	mov    $0x0,%eax
  401ef0:	e8 13 fc ff ff       	call   401b08 <check_fail>
  401ef5:	bf 48 36 40 00       	mov    $0x403648,%edi
  401efa:	e8 d1 ed ff ff       	call   400cd0 <puts@plt>
  401eff:	bf c7 34 40 00       	mov    $0x4034c7,%edi
  401f04:	e8 c7 ed ff ff       	call   400cd0 <puts@plt>
  401f09:	be 00 00 00 00       	mov    $0x0,%esi
  401f0e:	bf 00 00 00 00       	mov    $0x0,%edi
  401f13:	e8 77 fc ff ff       	call   401b8f <notify_server>
  401f18:	bf 01 00 00 00       	mov    $0x1,%edi
  401f1d:	e8 2e ef ff ff       	call   400e50 <exit@plt>

0000000000401f22 <illegalhandler>:
  401f22:	48 83 ec 08          	sub    $0x8,%rsp
  401f26:	83 3d fb 35 20 00 00 	cmpl   $0x0,0x2035fb(%rip)        # 605528 <is_checker>
  401f2d:	74 14                	je     401f43 <illegalhandler+0x21>
  401f2f:	bf f0 34 40 00       	mov    $0x4034f0,%edi
  401f34:	e8 97 ed ff ff       	call   400cd0 <puts@plt>
  401f39:	b8 00 00 00 00       	mov    $0x0,%eax
  401f3e:	e8 c5 fb ff ff       	call   401b08 <check_fail>
  401f43:	bf 70 36 40 00       	mov    $0x403670,%edi
  401f48:	e8 83 ed ff ff       	call   400cd0 <puts@plt>
  401f4d:	bf c7 34 40 00       	mov    $0x4034c7,%edi
  401f52:	e8 79 ed ff ff       	call   400cd0 <puts@plt>
  401f57:	be 00 00 00 00       	mov    $0x0,%esi
  401f5c:	bf 00 00 00 00       	mov    $0x0,%edi
  401f61:	e8 29 fc ff ff       	call   401b8f <notify_server>
  401f66:	bf 01 00 00 00       	mov    $0x1,%edi
  401f6b:	e8 e0 ee ff ff       	call   400e50 <exit@plt>

0000000000401f70 <sigalrmhandler>:
  401f70:	48 83 ec 08          	sub    $0x8,%rsp
  401f74:	83 3d ad 35 20 00 00 	cmpl   $0x0,0x2035ad(%rip)        # 605528 <is_checker>
  401f7b:	74 14                	je     401f91 <sigalrmhandler+0x21>
  401f7d:	bf 04 35 40 00       	mov    $0x403504,%edi
  401f82:	e8 49 ed ff ff       	call   400cd0 <puts@plt>
  401f87:	b8 00 00 00 00       	mov    $0x0,%eax
  401f8c:	e8 77 fb ff ff       	call   401b08 <check_fail>
  401f91:	ba 05 00 00 00       	mov    $0x5,%edx
  401f96:	be a0 36 40 00       	mov    $0x4036a0,%esi
  401f9b:	bf 01 00 00 00       	mov    $0x1,%edi
  401fa0:	b8 00 00 00 00       	mov    $0x0,%eax
  401fa5:	e8 56 ee ff ff       	call   400e00 <__printf_chk@plt>
  401faa:	be 00 00 00 00       	mov    $0x0,%esi
  401faf:	bf 00 00 00 00       	mov    $0x0,%edi
  401fb4:	e8 d6 fb ff ff       	call   401b8f <notify_server>
  401fb9:	bf 01 00 00 00       	mov    $0x1,%edi
  401fbe:	e8 8d ee ff ff       	call   400e50 <exit@plt>

0000000000401fc3 <launch>:
  401fc3:	55                   	push   %rbp
  401fc4:	48 89 e5             	mov    %rsp,%rbp
  401fc7:	48 83 ec 10          	sub    $0x10,%rsp
  401fcb:	48 89 fa             	mov    %rdi,%rdx
  401fce:	64 48 8b 04 25 28 00 	mov    %fs:0x28,%rax
  401fd5:	00 00 
  401fd7:	48 89 45 f8          	mov    %rax,-0x8(%rbp)
  401fdb:	31 c0                	xor    %eax,%eax
  401fdd:	48 8d 47 1e          	lea    0x1e(%rdi),%rax
  401fe1:	48 83 e0 f0          	and    $0xfffffffffffffff0,%rax
  401fe5:	48 29 c4             	sub    %rax,%rsp
  401fe8:	48 8d 7c 24 0f       	lea    0xf(%rsp),%rdi
  401fed:	48 83 e7 f0          	and    $0xfffffffffffffff0,%rdi
  401ff1:	be f4 00 00 00       	mov    $0xf4,%esi
  401ff6:	e8 15 ed ff ff       	call   400d10 <memset@plt>
  401ffb:	48 8b 05 be 34 20 00 	mov    0x2034be(%rip),%rax        # 6054c0 <stdin@GLIBC_2.2.5>
  402002:	48 39 05 07 35 20 00 	cmp    %rax,0x203507(%rip)        # 605510 <infile>
  402009:	75 14                	jne    40201f <launch+0x5c>
  40200b:	be 0c 35 40 00       	mov    $0x40350c,%esi
  402010:	bf 01 00 00 00       	mov    $0x1,%edi
  402015:	b8 00 00 00 00       	mov    $0x0,%eax
  40201a:	e8 e1 ed ff ff       	call   400e00 <__printf_chk@plt>
  40201f:	c7 05 f3 34 20 00 00 	movl   $0x0,0x2034f3(%rip)        # 60551c <vlevel>
  402026:	00 00 00 
  402029:	b8 00 00 00 00       	mov    $0x0,%eax
  40202e:	e8 41 fa ff ff       	call   401a74 <test>
  402033:	83 3d ee 34 20 00 00 	cmpl   $0x0,0x2034ee(%rip)        # 605528 <is_checker>
  40203a:	74 14                	je     402050 <launch+0x8d>
  40203c:	bf 19 35 40 00       	mov    $0x403519,%edi
  402041:	e8 8a ec ff ff       	call   400cd0 <puts@plt>
  402046:	b8 00 00 00 00       	mov    $0x0,%eax
  40204b:	e8 b8 fa ff ff       	call   401b08 <check_fail>
  402050:	bf 24 35 40 00       	mov    $0x403524,%edi
  402055:	e8 76 ec ff ff       	call   400cd0 <puts@plt>
  40205a:	48 8b 45 f8          	mov    -0x8(%rbp),%rax
  40205e:	64 48 33 04 25 28 00 	xor    %fs:0x28,%rax
  402065:	00 00 
  402067:	74 05                	je     40206e <launch+0xab>
  402069:	e8 82 ec ff ff       	call   400cf0 <__stack_chk_fail@plt>
  40206e:	c9                   	leave  
  40206f:	c3                   	ret    

0000000000402070 <stable_launch>:
  402070:	53                   	push   %rbx
  402071:	48 89 3d 90 34 20 00 	mov    %rdi,0x203490(%rip)        # 605508 <global_offset>
  402078:	41 b9 00 00 00 00    	mov    $0x0,%r9d
  40207e:	41 b8 00 00 00 00    	mov    $0x0,%r8d
  402084:	b9 32 01 00 00       	mov    $0x132,%ecx
  402089:	ba 07 00 00 00       	mov    $0x7,%edx
  40208e:	be 00 00 10 00       	mov    $0x100000,%esi
  402093:	bf 00 60 58 55       	mov    $0x55586000,%edi
  402098:	e8 63 ec ff ff       	call   400d00 <mmap@plt>
  40209d:	48 89 c3             	mov    %rax,%rbx
  4020a0:	48 3d 00 60 58 55    	cmp    $0x55586000,%rax
  4020a6:	74 37                	je     4020df <stable_launch+0x6f>
  4020a8:	be 00 00 10 00       	mov    $0x100000,%esi
  4020ad:	48 89 c7             	mov    %rax,%rdi
  4020b0:	e8 3b ed ff ff       	call   400df0 <munmap@plt>
  4020b5:	b9 00 60 58 55       	mov    $0x55586000,%ecx
  4020ba:	ba d8 36 40 00       	mov    $0x4036d8,%edx
  4020bf:	be 01 00 00 00       	mov    $0x1,%esi
  4020c4:	48 8b 3d 15 34 20 00 	mov    0x203415(%rip),%rdi        # 6054e0 <stderr@GLIBC_2.2.5>
  4020cb:	b8 00 00 00 00       	mov    $0x0,%eax
  4020d0:	e8 9b ed ff ff       	call   400e70 <__fprintf_chk@plt>
  4020d5:	bf 01 00 00 00       	mov    $0x1,%edi
  4020da:	e8 71 ed ff ff       	call   400e50 <exit@plt>
  4020df:	48 8d 90 f8 ff 0f 00 	lea    0xffff8(%rax),%rdx
  4020e6:	48 89 15 63 40 20 00 	mov    %rdx,0x204063(%rip)        # 606150 <stack_top>
  4020ed:	48 89 e0             	mov    %rsp,%rax
  4020f0:	48 89 d4             	mov    %rdx,%rsp
  4020f3:	48 89 c2             	mov    %rax,%rdx
  4020f6:	48 89 15 03 34 20 00 	mov    %rdx,0x203403(%rip)        # 605500 <global_save_stack>
  4020fd:	48 8b 3d 04 34 20 00 	mov    0x203404(%rip),%rdi        # 605508 <global_offset>
  402104:	e8 ba fe ff ff       	call   401fc3 <launch>
  402109:	48 8b 05 f0 33 20 00 	mov    0x2033f0(%rip),%rax        # 605500 <global_save_stack>
  402110:	48 89 c4             	mov    %rax,%rsp
  402113:	be 00 00 10 00       	mov    $0x100000,%esi
  402118:	48 89 df             	mov    %rbx,%rdi
  40211b:	e8 d0 ec ff ff       	call   400df0 <munmap@plt>
  402120:	5b                   	pop    %rbx
  402121:	c3                   	ret    

0000000000402122 <rio_readinitb>:
  402122:	89 37                	mov    %esi,(%rdi)
  402124:	c7 47 04 00 00 00 00 	movl   $0x0,0x4(%rdi)
  40212b:	48 8d 47 10          	lea    0x10(%rdi),%rax
  40212f:	48 89 47 08          	mov    %rax,0x8(%rdi)
  402133:	c3                   	ret    

0000000000402134 <sigalrm_handler>:
  402134:	48 83 ec 08          	sub    $0x8,%rsp
  402138:	b9 00 00 00 00       	mov    $0x0,%ecx
  40213d:	ba 10 37 40 00       	mov    $0x403710,%edx
  402142:	be 01 00 00 00       	mov    $0x1,%esi
  402147:	48 8b 3d 92 33 20 00 	mov    0x203392(%rip),%rdi        # 6054e0 <stderr@GLIBC_2.2.5>
  40214e:	b8 00 00 00 00       	mov    $0x0,%eax
  402153:	e8 18 ed ff ff       	call   400e70 <__fprintf_chk@plt>
  402158:	bf 01 00 00 00       	mov    $0x1,%edi
  40215d:	e8 ee ec ff ff       	call   400e50 <exit@plt>

0000000000402162 <rio_writen>:
  402162:	41 55                	push   %r13
  402164:	41 54                	push   %r12
  402166:	55                   	push   %rbp
  402167:	53                   	push   %rbx
  402168:	48 83 ec 08          	sub    $0x8,%rsp
  40216c:	41 89 fc             	mov    %edi,%r12d
  40216f:	48 89 f5             	mov    %rsi,%rbp
  402172:	49 89 d5             	mov    %rdx,%r13
  402175:	48 89 d3             	mov    %rdx,%rbx
  402178:	eb 28                	jmp    4021a2 <rio_writen+0x40>
  40217a:	48 89 da             	mov    %rbx,%rdx
  40217d:	48 89 ee             	mov    %rbp,%rsi
  402180:	44 89 e7             	mov    %r12d,%edi
  402183:	e8 58 eb ff ff       	call   400ce0 <write@plt>
  402188:	48 85 c0             	test   %rax,%rax
  40218b:	7f 0f                	jg     40219c <rio_writen+0x3a>
  40218d:	e8 fe ea ff ff       	call   400c90 <__errno_location@plt>
  402192:	83 38 04             	cmpl   $0x4,(%rax)
  402195:	75 15                	jne    4021ac <rio_writen+0x4a>
  402197:	b8 00 00 00 00       	mov    $0x0,%eax
  40219c:	48 29 c3             	sub    %rax,%rbx
  40219f:	48 01 c5             	add    %rax,%rbp
  4021a2:	48 85 db             	test   %rbx,%rbx
  4021a5:	75 d3                	jne    40217a <rio_writen+0x18>
  4021a7:	4c 89 e8             	mov    %r13,%rax
  4021aa:	eb 07                	jmp    4021b3 <rio_writen+0x51>
  4021ac:	48 c7 c0 ff ff ff ff 	mov    $0xffffffffffffffff,%rax
  4021b3:	48 83 c4 08          	add    $0x8,%rsp
  4021b7:	5b                   	pop    %rbx
  4021b8:	5d                   	pop    %rbp
  4021b9:	41 5c                	pop    %r12
  4021bb:	41 5d                	pop    %r13
  4021bd:	c3                   	ret    

00000000004021be <rio_read>:
  4021be:	41 55                	push   %r13
  4021c0:	41 54                	push   %r12
  4021c2:	55                   	push   %rbp
  4021c3:	53                   	push   %rbx
  4021c4:	48 83 ec 08          	sub    $0x8,%rsp
  4021c8:	48 89 fb             	mov    %rdi,%rbx
  4021cb:	49 89 f5             	mov    %rsi,%r13
  4021ce:	49 89 d4             	mov    %rdx,%r12
  4021d1:	eb 2e                	jmp    402201 <rio_read+0x43>
  4021d3:	48 8d 6b 10          	lea    0x10(%rbx),%rbp
  4021d7:	8b 3b                	mov    (%rbx),%edi
  4021d9:	ba 00 20 00 00       	mov    $0x2000,%edx
  4021de:	48 89 ee             	mov    %rbp,%rsi
  4021e1:	e8 5a eb ff ff       	call   400d40 <read@plt>
  4021e6:	89 43 04             	mov    %eax,0x4(%rbx)
  4021e9:	85 c0                	test   %eax,%eax
  4021eb:	79 0c                	jns    4021f9 <rio_read+0x3b>
  4021ed:	e8 9e ea ff ff       	call   400c90 <__errno_location@plt>
  4021f2:	83 38 04             	cmpl   $0x4,(%rax)
  4021f5:	74 0a                	je     402201 <rio_read+0x43>
  4021f7:	eb 37                	jmp    402230 <rio_read+0x72>
  4021f9:	85 c0                	test   %eax,%eax
  4021fb:	74 3c                	je     402239 <rio_read+0x7b>
  4021fd:	48 89 6b 08          	mov    %rbp,0x8(%rbx)
  402201:	8b 6b 04             	mov    0x4(%rbx),%ebp
  402204:	85 ed                	test   %ebp,%ebp
  402206:	7e cb                	jle    4021d3 <rio_read+0x15>
  402208:	89 e8                	mov    %ebp,%eax
  40220a:	49 39 c4             	cmp    %rax,%r12
  40220d:	77 03                	ja     402212 <rio_read+0x54>
  40220f:	44 89 e5             	mov    %r12d,%ebp
  402212:	4c 63 e5             	movslq %ebp,%r12
  402215:	48 8b 73 08          	mov    0x8(%rbx),%rsi
  402219:	4c 89 e2             	mov    %r12,%rdx
  40221c:	4c 89 ef             	mov    %r13,%rdi
  40221f:	e8 7c eb ff ff       	call   400da0 <memcpy@plt>
  402224:	4c 01 63 08          	add    %r12,0x8(%rbx)
  402228:	29 6b 04             	sub    %ebp,0x4(%rbx)
  40222b:	4c 89 e0             	mov    %r12,%rax
  40222e:	eb 0e                	jmp    40223e <rio_read+0x80>
  402230:	48 c7 c0 ff ff ff ff 	mov    $0xffffffffffffffff,%rax
  402237:	eb 05                	jmp    40223e <rio_read+0x80>
  402239:	b8 00 00 00 00       	mov    $0x0,%eax
  40223e:	48 83 c4 08          	add    $0x8,%rsp
  402242:	5b                   	pop    %rbx
  402243:	5d                   	pop    %rbp
  402244:	41 5c                	pop    %r12
  402246:	41 5d                	pop    %r13
  402248:	c3                   	ret    

0000000000402249 <rio_readlineb>:
  402249:	41 55                	push   %r13
  40224b:	41 54                	push   %r12
  40224d:	55                   	push   %rbp
  40224e:	53                   	push   %rbx
  40224f:	48 83 ec 18          	sub    $0x18,%rsp
  402253:	49 89 fd             	mov    %rdi,%r13
  402256:	48 89 f5             	mov    %rsi,%rbp
  402259:	49 89 d4             	mov    %rdx,%r12
  40225c:	64 48 8b 04 25 28 00 	mov    %fs:0x28,%rax
  402263:	00 00 
  402265:	48 89 44 24 08       	mov    %rax,0x8(%rsp)
  40226a:	31 c0                	xor    %eax,%eax
  40226c:	bb 01 00 00 00       	mov    $0x1,%ebx
  402271:	eb 3f                	jmp    4022b2 <rio_readlineb+0x69>
  402273:	ba 01 00 00 00       	mov    $0x1,%edx
  402278:	48 8d 74 24 07       	lea    0x7(%rsp),%rsi
  40227d:	4c 89 ef             	mov    %r13,%rdi
  402280:	e8 39 ff ff ff       	call   4021be <rio_read>
  402285:	83 f8 01             	cmp    $0x1,%eax
  402288:	75 15                	jne    40229f <rio_readlineb+0x56>
  40228a:	48 8d 45 01          	lea    0x1(%rbp),%rax
  40228e:	0f b6 54 24 07       	movzbl 0x7(%rsp),%edx
  402293:	88 55 00             	mov    %dl,0x0(%rbp)
  402296:	80 7c 24 07 0a       	cmpb   $0xa,0x7(%rsp)
  40229b:	75 0e                	jne    4022ab <rio_readlineb+0x62>
  40229d:	eb 1a                	jmp    4022b9 <rio_readlineb+0x70>
  40229f:	85 c0                	test   %eax,%eax
  4022a1:	75 22                	jne    4022c5 <rio_readlineb+0x7c>
  4022a3:	48 83 fb 01          	cmp    $0x1,%rbx
  4022a7:	75 13                	jne    4022bc <rio_readlineb+0x73>
  4022a9:	eb 23                	jmp    4022ce <rio_readlineb+0x85>
  4022ab:	48 83 c3 01          	add    $0x1,%rbx
  4022af:	48 89 c5             	mov    %rax,%rbp
  4022b2:	4c 39 e3             	cmp    %r12,%rbx
  4022b5:	72 bc                	jb     402273 <rio_readlineb+0x2a>
  4022b7:	eb 03                	jmp    4022bc <rio_readlineb+0x73>
  4022b9:	48 89 c5             	mov    %rax,%rbp
  4022bc:	c6 45 00 00          	movb   $0x0,0x0(%rbp)
  4022c0:	48 89 d8             	mov    %rbx,%rax
  4022c3:	eb 0e                	jmp    4022d3 <rio_readlineb+0x8a>
  4022c5:	48 c7 c0 ff ff ff ff 	mov    $0xffffffffffffffff,%rax
  4022cc:	eb 05                	jmp    4022d3 <rio_readlineb+0x8a>
  4022ce:	b8 00 00 00 00       	mov    $0x0,%eax
  4022d3:	48 8b 4c 24 08       	mov    0x8(%rsp),%rcx
  4022d8:	64 48 33 0c 25 28 00 	xor    %fs:0x28,%rcx
  4022df:	00 00 
  4022e1:	74 05                	je     4022e8 <rio_readlineb+0x9f>
  4022e3:	e8 08 ea ff ff       	call   400cf0 <__stack_chk_fail@plt>
  4022e8:	48 83 c4 18          	add    $0x18,%rsp
  4022ec:	5b                   	pop    %rbx
  4022ed:	5d                   	pop    %rbp
  4022ee:	41 5c                	pop    %r12
  4022f0:	41 5d                	pop    %r13
  4022f2:	c3                   	ret    

00000000004022f3 <urlencode>:
  4022f3:	41 54                	push   %r12
  4022f5:	55                   	push   %rbp
  4022f6:	53                   	push   %rbx
  4022f7:	48 83 ec 10          	sub    $0x10,%rsp
  4022fb:	48 89 fb             	mov    %rdi,%rbx
  4022fe:	48 89 f5             	mov    %rsi,%rbp
  402301:	64 48 8b 04 25 28 00 	mov    %fs:0x28,%rax
  402308:	00 00 
  40230a:	48 89 44 24 08       	mov    %rax,0x8(%rsp)
  40230f:	31 c0                	xor    %eax,%eax
  402311:	48 c7 c1 ff ff ff ff 	mov    $0xffffffffffffffff,%rcx
  402318:	f2 ae                	repnz scas %es:(%rdi),%al
  40231a:	48 f7 d1             	not    %rcx
  40231d:	8d 41 ff             	lea    -0x1(%rcx),%eax
  402320:	e9 aa 00 00 00       	jmp    4023cf <urlencode+0xdc>
  402325:	44 0f b6 03          	movzbl (%rbx),%r8d
  402329:	41 80 f8 2a          	cmp    $0x2a,%r8b
  40232d:	0f 94 c2             	sete   %dl
  402330:	41 80 f8 2d          	cmp    $0x2d,%r8b
  402334:	0f 94 c0             	sete   %al
  402337:	08 c2                	or     %al,%dl
  402339:	75 24                	jne    40235f <urlencode+0x6c>
  40233b:	41 80 f8 2e          	cmp    $0x2e,%r8b
  40233f:	74 1e                	je     40235f <urlencode+0x6c>
  402341:	41 80 f8 5f          	cmp    $0x5f,%r8b
  402345:	74 18                	je     40235f <urlencode+0x6c>
  402347:	41 8d 40 d0          	lea    -0x30(%r8),%eax
  40234b:	3c 09                	cmp    $0x9,%al
  40234d:	76 10                	jbe    40235f <urlencode+0x6c>
  40234f:	41 8d 40 bf          	lea    -0x41(%r8),%eax
  402353:	3c 19                	cmp    $0x19,%al
  402355:	76 08                	jbe    40235f <urlencode+0x6c>
  402357:	41 8d 40 9f          	lea    -0x61(%r8),%eax
  40235b:	3c 19                	cmp    $0x19,%al
  40235d:	77 0a                	ja     402369 <urlencode+0x76>
  40235f:	44 88 45 00          	mov    %r8b,0x0(%rbp)
  402363:	48 8d 6d 01          	lea    0x1(%rbp),%rbp
  402367:	eb 5f                	jmp    4023c8 <urlencode+0xd5>
  402369:	41 80 f8 20          	cmp    $0x20,%r8b
  40236d:	75 0a                	jne    402379 <urlencode+0x86>
  40236f:	c6 45 00 2b          	movb   $0x2b,0x0(%rbp)
  402373:	48 8d 6d 01          	lea    0x1(%rbp),%rbp
  402377:	eb 4f                	jmp    4023c8 <urlencode+0xd5>
  402379:	41 8d 40 e0          	lea    -0x20(%r8),%eax
  40237d:	3c 5f                	cmp    $0x5f,%al
  40237f:	0f 96 c2             	setbe  %dl
  402382:	41 80 f8 09          	cmp    $0x9,%r8b
  402386:	0f 94 c0             	sete   %al
  402389:	08 c2                	or     %al,%dl
  40238b:	74 50                	je     4023dd <urlencode+0xea>
  40238d:	45 0f b6 c0          	movzbl %r8b,%r8d
  402391:	b9 a8 37 40 00       	mov    $0x4037a8,%ecx
  402396:	ba 08 00 00 00       	mov    $0x8,%edx
  40239b:	be 01 00 00 00       	mov    $0x1,%esi
  4023a0:	48 89 e7             	mov    %rsp,%rdi
  4023a3:	b8 00 00 00 00       	mov    $0x0,%eax
  4023a8:	e8 d3 ea ff ff       	call   400e80 <__sprintf_chk@plt>
  4023ad:	0f b6 04 24          	movzbl (%rsp),%eax
  4023b1:	88 45 00             	mov    %al,0x0(%rbp)
  4023b4:	0f b6 44 24 01       	movzbl 0x1(%rsp),%eax
  4023b9:	88 45 01             	mov    %al,0x1(%rbp)
  4023bc:	0f b6 44 24 02       	movzbl 0x2(%rsp),%eax
  4023c1:	88 45 02             	mov    %al,0x2(%rbp)
  4023c4:	48 8d 6d 03          	lea    0x3(%rbp),%rbp
  4023c8:	48 83 c3 01          	add    $0x1,%rbx
  4023cc:	44 89 e0             	mov    %r12d,%eax
  4023cf:	44 8d 60 ff          	lea    -0x1(%rax),%r12d
  4023d3:	85 c0                	test   %eax,%eax
  4023d5:	0f 85 4a ff ff ff    	jne    402325 <urlencode+0x32>
  4023db:	eb 05                	jmp    4023e2 <urlencode+0xef>
  4023dd:	b8 ff ff ff ff       	mov    $0xffffffff,%eax
  4023e2:	48 8b 74 24 08       	mov    0x8(%rsp),%rsi
  4023e7:	64 48 33 34 25 28 00 	xor    %fs:0x28,%rsi
  4023ee:	00 00 
  4023f0:	74 05                	je     4023f7 <urlencode+0x104>
  4023f2:	e8 f9 e8 ff ff       	call   400cf0 <__stack_chk_fail@plt>
  4023f7:	48 83 c4 10          	add    $0x10,%rsp
  4023fb:	5b                   	pop    %rbx
  4023fc:	5d                   	pop    %rbp
  4023fd:	41 5c                	pop    %r12
  4023ff:	c3                   	ret    

0000000000402400 <submitr>:
  402400:	41 57                	push   %r15
  402402:	41 56                	push   %r14
  402404:	41 55                	push   %r13
  402406:	41 54                	push   %r12
  402408:	55                   	push   %rbp
  402409:	53                   	push   %rbx
  40240a:	48 81 ec 58 a0 00 00 	sub    $0xa058,%rsp
  402411:	49 89 fc             	mov    %rdi,%r12
  402414:	89 74 24 04          	mov    %esi,0x4(%rsp)
  402418:	49 89 d7             	mov    %rdx,%r15
  40241b:	49 89 ce             	mov    %rcx,%r14
  40241e:	4c 89 44 24 08       	mov    %r8,0x8(%rsp)
  402423:	4d 89 cd             	mov    %r9,%r13
  402426:	48 8b 9c 24 90 a0 00 	mov    0xa090(%rsp),%rbx
  40242d:	00 
  40242e:	64 48 8b 04 25 28 00 	mov    %fs:0x28,%rax
  402435:	00 00 
  402437:	48 89 84 24 48 a0 00 	mov    %rax,0xa048(%rsp)
  40243e:	00 
  40243f:	31 c0                	xor    %eax,%eax
  402441:	c7 44 24 1c 00 00 00 	movl   $0x0,0x1c(%rsp)
  402448:	00 
  402449:	ba 00 00 00 00       	mov    $0x0,%edx
  40244e:	be 01 00 00 00       	mov    $0x1,%esi
  402453:	bf 02 00 00 00       	mov    $0x2,%edi
  402458:	e8 33 ea ff ff       	call   400e90 <socket@plt>
  40245d:	85 c0                	test   %eax,%eax
  40245f:	79 4e                	jns    4024af <submitr+0xaf>
  402461:	48 b8 45 72 72 6f 72 	movabs $0x43203a726f727245,%rax
  402468:	3a 20 43 
  40246b:	48 89 03             	mov    %rax,(%rbx)
  40246e:	48 b8 6c 69 65 6e 74 	movabs $0x6e7520746e65696c,%rax
  402475:	20 75 6e 
  402478:	48 89 43 08          	mov    %rax,0x8(%rbx)
  40247c:	48 b8 61 62 6c 65 20 	movabs $0x206f7420656c6261,%rax
  402483:	74 6f 20 
  402486:	48 89 43 10          	mov    %rax,0x10(%rbx)
  40248a:	48 b8 63 72 65 61 74 	movabs $0x7320657461657263,%rax
  402491:	65 20 73 
  402494:	48 89 43 18          	mov    %rax,0x18(%rbx)
  402498:	c7 43 20 6f 63 6b 65 	movl   $0x656b636f,0x20(%rbx)
  40249f:	66 c7 43 24 74 00    	movw   $0x74,0x24(%rbx)
  4024a5:	b8 ff ff ff ff       	mov    $0xffffffff,%eax
  4024aa:	e9 97 06 00 00       	jmp    402b46 <submitr+0x746>
  4024af:	89 c5                	mov    %eax,%ebp
  4024b1:	4c 89 e7             	mov    %r12,%rdi
  4024b4:	e8 b7 e8 ff ff       	call   400d70 <gethostbyname@plt>
  4024b9:	48 85 c0             	test   %rax,%rax
  4024bc:	75 67                	jne    402525 <submitr+0x125>
  4024be:	48 b8 45 72 72 6f 72 	movabs $0x44203a726f727245,%rax
  4024c5:	3a 20 44 
  4024c8:	48 89 03             	mov    %rax,(%rbx)
  4024cb:	48 b8 4e 53 20 69 73 	movabs $0x6e7520736920534e,%rax
  4024d2:	20 75 6e 
  4024d5:	48 89 43 08          	mov    %rax,0x8(%rbx)
  4024d9:	48 b8 61 62 6c 65 20 	movabs $0x206f7420656c6261,%rax
  4024e0:	74 6f 20 
  4024e3:	48 89 43 10          	mov    %rax,0x10(%rbx)
  4024e7:	48 b8 72 65 73 6f 6c 	movabs $0x2065766c6f736572,%rax
  4024ee:	76 65 20 
  4024f1:	48 89 43 18          	mov    %rax,0x18(%rbx)
  4024f5:	48 b8 73 65 72 76 65 	movabs $0x6120726576726573,%rax
  4024fc:	72 20 61 
  4024ff:	48 89 43 20          	mov    %rax,0x20(%rbx)
  402503:	c7 43 28 64 64 72 65 	movl   $0x65726464,0x28(%rbx)
  40250a:	66 c7 43 2c 73 73    	movw   $0x7373,0x2c(%rbx)
  402510:	c6 43 2e 00          	movb   $0x0,0x2e(%rbx)
  402514:	89 ef                	mov    %ebp,%edi
  402516:	e8 15 e8 ff ff       	call   400d30 <close@plt>
  40251b:	b8 ff ff ff ff       	mov    $0xffffffff,%eax
  402520:	e9 21 06 00 00       	jmp    402b46 <submitr+0x746>
  402525:	48 c7 44 24 20 00 00 	movq   $0x0,0x20(%rsp)
  40252c:	00 00 
  40252e:	48 c7 44 24 28 00 00 	movq   $0x0,0x28(%rsp)
  402535:	00 00 
  402537:	66 c7 44 24 20 02 00 	movw   $0x2,0x20(%rsp)
  40253e:	48 63 50 14          	movslq 0x14(%rax),%rdx
  402542:	48 8b 40 18          	mov    0x18(%rax),%rax
  402546:	48 8b 30             	mov    (%rax),%rsi
  402549:	48 8d 7c 24 24       	lea    0x24(%rsp),%rdi
  40254e:	b9 0c 00 00 00       	mov    $0xc,%ecx
  402553:	e8 28 e8 ff ff       	call   400d80 <__memmove_chk@plt>
  402558:	0f b7 44 24 04       	movzwl 0x4(%rsp),%eax
  40255d:	66 c1 c8 08          	ror    $0x8,%ax
  402561:	66 89 44 24 22       	mov    %ax,0x22(%rsp)
  402566:	ba 10 00 00 00       	mov    $0x10,%edx
  40256b:	48 8d 74 24 20       	lea    0x20(%rsp),%rsi
  402570:	89 ef                	mov    %ebp,%edi
  402572:	e8 e9 e8 ff ff       	call   400e60 <connect@plt>
  402577:	85 c0                	test   %eax,%eax
  402579:	79 59                	jns    4025d4 <submitr+0x1d4>
  40257b:	48 b8 45 72 72 6f 72 	movabs $0x55203a726f727245,%rax
  402582:	3a 20 55 
  402585:	48 89 03             	mov    %rax,(%rbx)
  402588:	48 b8 6e 61 62 6c 65 	movabs $0x6f7420656c62616e,%rax
  40258f:	20 74 6f 
  402592:	48 89 43 08          	mov    %rax,0x8(%rbx)
  402596:	48 b8 20 63 6f 6e 6e 	movabs $0x7463656e6e6f6320,%rax
  40259d:	65 63 74 
  4025a0:	48 89 43 10          	mov    %rax,0x10(%rbx)
  4025a4:	48 b8 20 74 6f 20 74 	movabs $0x20656874206f7420,%rax
  4025ab:	68 65 20 
  4025ae:	48 89 43 18          	mov    %rax,0x18(%rbx)
  4025b2:	c7 43 20 73 65 72 76 	movl   $0x76726573,0x20(%rbx)
  4025b9:	66 c7 43 24 65 72    	movw   $0x7265,0x24(%rbx)
  4025bf:	c6 43 26 00          	movb   $0x0,0x26(%rbx)
  4025c3:	89 ef                	mov    %ebp,%edi
  4025c5:	e8 66 e7 ff ff       	call   400d30 <close@plt>
  4025ca:	b8 ff ff ff ff       	mov    $0xffffffff,%eax
  4025cf:	e9 72 05 00 00       	jmp    402b46 <submitr+0x746>
  4025d4:	48 c7 c6 ff ff ff ff 	mov    $0xffffffffffffffff,%rsi
  4025db:	b8 00 00 00 00       	mov    $0x0,%eax
  4025e0:	48 89 f1             	mov    %rsi,%rcx
  4025e3:	4c 89 ef             	mov    %r13,%rdi
  4025e6:	f2 ae                	repnz scas %es:(%rdi),%al
  4025e8:	48 f7 d1             	not    %rcx
  4025eb:	48 89 ca             	mov    %rcx,%rdx
  4025ee:	48 89 f1             	mov    %rsi,%rcx
  4025f1:	4c 89 ff             	mov    %r15,%rdi
  4025f4:	f2 ae                	repnz scas %es:(%rdi),%al
  4025f6:	48 f7 d1             	not    %rcx
  4025f9:	49 89 c8             	mov    %rcx,%r8
  4025fc:	48 89 f1             	mov    %rsi,%rcx
  4025ff:	4c 89 f7             	mov    %r14,%rdi
  402602:	f2 ae                	repnz scas %es:(%rdi),%al
  402604:	48 f7 d1             	not    %rcx
  402607:	4d 8d 44 08 fe       	lea    -0x2(%r8,%rcx,1),%r8
  40260c:	48 89 f1             	mov    %rsi,%rcx
  40260f:	48 8b 7c 24 08       	mov    0x8(%rsp),%rdi
  402614:	f2 ae                	repnz scas %es:(%rdi),%al
  402616:	48 89 c8             	mov    %rcx,%rax
  402619:	48 f7 d0             	not    %rax
  40261c:	49 8d 4c 00 ff       	lea    -0x1(%r8,%rax,1),%rcx
  402621:	48 8d 44 52 fd       	lea    -0x3(%rdx,%rdx,2),%rax
  402626:	48 8d 84 01 80 00 00 	lea    0x80(%rcx,%rax,1),%rax
  40262d:	00 
  40262e:	48 3d 00 20 00 00    	cmp    $0x2000,%rax
  402634:	76 72                	jbe    4026a8 <submitr+0x2a8>
  402636:	48 b8 45 72 72 6f 72 	movabs $0x52203a726f727245,%rax
  40263d:	3a 20 52 
  402640:	48 89 03             	mov    %rax,(%rbx)
  402643:	48 b8 65 73 75 6c 74 	movabs $0x747320746c757365,%rax
  40264a:	20 73 74 
  40264d:	48 89 43 08          	mov    %rax,0x8(%rbx)
  402651:	48 b8 72 69 6e 67 20 	movabs $0x6f6f7420676e6972,%rax
  402658:	74 6f 6f 
  40265b:	48 89 43 10          	mov    %rax,0x10(%rbx)
  40265f:	48 b8 20 6c 61 72 67 	movabs $0x202e656772616c20,%rax
  402666:	65 2e 20 
  402669:	48 89 43 18          	mov    %rax,0x18(%rbx)
  40266d:	48 b8 49 6e 63 72 65 	movabs $0x6573616572636e49,%rax
  402674:	61 73 65 
  402677:	48 89 43 20          	mov    %rax,0x20(%rbx)
  40267b:	48 b8 20 53 55 42 4d 	movabs $0x5254494d42555320,%rax
  402682:	49 54 52 
  402685:	48 89 43 28          	mov    %rax,0x28(%rbx)
  402689:	48 b8 5f 4d 41 58 42 	movabs $0x46554258414d5f,%rax
  402690:	55 46 00 
  402693:	48 89 43 30          	mov    %rax,0x30(%rbx)
  402697:	89 ef                	mov    %ebp,%edi
  402699:	e8 92 e6 ff ff       	call   400d30 <close@plt>
  40269e:	b8 ff ff ff ff       	mov    $0xffffffff,%eax
  4026a3:	e9 9e 04 00 00       	jmp    402b46 <submitr+0x746>
  4026a8:	48 8d b4 24 40 40 00 	lea    0x4040(%rsp),%rsi
  4026af:	00 
  4026b0:	b9 00 04 00 00       	mov    $0x400,%ecx
  4026b5:	b8 00 00 00 00       	mov    $0x0,%eax
  4026ba:	48 89 f7             	mov    %rsi,%rdi
  4026bd:	f3 48 ab             	rep stos %rax,%es:(%rdi)
  4026c0:	4c 89 ef             	mov    %r13,%rdi
  4026c3:	e8 2b fc ff ff       	call   4022f3 <urlencode>
  4026c8:	85 c0                	test   %eax,%eax
  4026ca:	0f 89 8a 00 00 00    	jns    40275a <submitr+0x35a>
  4026d0:	48 b8 45 72 72 6f 72 	movabs $0x52203a726f727245,%rax
  4026d7:	3a 20 52 
  4026da:	48 89 03             	mov    %rax,(%rbx)
  4026dd:	48 b8 65 73 75 6c 74 	movabs $0x747320746c757365,%rax
  4026e4:	20 73 74 
  4026e7:	48 89 43 08          	mov    %rax,0x8(%rbx)
  4026eb:	48 b8 72 69 6e 67 20 	movabs $0x6e6f6320676e6972,%rax
  4026f2:	63 6f 6e 
  4026f5:	48 89 43 10          	mov    %rax,0x10(%rbx)
  4026f9:	48 b8 74 61 69 6e 73 	movabs $0x6e6120736e696174,%rax
  402700:	20 61 6e 
  402703:	48 89 43 18          	mov    %rax,0x18(%rbx)
  402707:	48 b8 20 69 6c 6c 65 	movabs $0x6c6167656c6c6920,%rax
  40270e:	67 61 6c 
  402711:	48 89 43 20          	mov    %rax,0x20(%rbx)
  402715:	48 b8 20 6f 72 20 75 	movabs $0x72706e7520726f20,%rax
  40271c:	6e 70 72 
  40271f:	48 89 43 28          	mov    %rax,0x28(%rbx)
  402723:	48 b8 69 6e 74 61 62 	movabs $0x20656c6261746e69,%rax
  40272a:	6c 65 20 
  40272d:	48 89 43 30          	mov    %rax,0x30(%rbx)
  402731:	48 b8 63 68 61 72 61 	movabs $0x6574636172616863,%rax
  402738:	63 74 65 
  40273b:	48 89 43 38          	mov    %rax,0x38(%rbx)
  40273f:	66 c7 43 40 72 2e    	movw   $0x2e72,0x40(%rbx)
  402745:	c6 43 42 00          	movb   $0x0,0x42(%rbx)
  402749:	89 ef                	mov    %ebp,%edi
  40274b:	e8 e0 e5 ff ff       	call   400d30 <close@plt>
  402750:	b8 ff ff ff ff       	mov    $0xffffffff,%eax
  402755:	e9 ec 03 00 00       	jmp    402b46 <submitr+0x746>
  40275a:	4c 8d ac 24 40 20 00 	lea    0x2040(%rsp),%r13
  402761:	00 
  402762:	41 54                	push   %r12
  402764:	48 8d 84 24 48 40 00 	lea    0x4048(%rsp),%rax
  40276b:	00 
  40276c:	50                   	push   %rax
  40276d:	4d 89 f9             	mov    %r15,%r9
  402770:	4d 89 f0             	mov    %r14,%r8
  402773:	b9 38 37 40 00       	mov    $0x403738,%ecx
  402778:	ba 00 20 00 00       	mov    $0x2000,%edx
  40277d:	be 01 00 00 00       	mov    $0x1,%esi
  402782:	4c 89 ef             	mov    %r13,%rdi
  402785:	b8 00 00 00 00       	mov    $0x0,%eax
  40278a:	e8 f1 e6 ff ff       	call   400e80 <__sprintf_chk@plt>
  40278f:	b8 00 00 00 00       	mov    $0x0,%eax
  402794:	48 c7 c1 ff ff ff ff 	mov    $0xffffffffffffffff,%rcx
  40279b:	4c 89 ef             	mov    %r13,%rdi
  40279e:	f2 ae                	repnz scas %es:(%rdi),%al
  4027a0:	48 f7 d1             	not    %rcx
  4027a3:	48 8d 51 ff          	lea    -0x1(%rcx),%rdx
  4027a7:	4c 89 ee             	mov    %r13,%rsi
  4027aa:	89 ef                	mov    %ebp,%edi
  4027ac:	e8 b1 f9 ff ff       	call   402162 <rio_writen>
  4027b1:	48 83 c4 10          	add    $0x10,%rsp
  4027b5:	48 85 c0             	test   %rax,%rax
  4027b8:	79 6e                	jns    402828 <submitr+0x428>
  4027ba:	48 b8 45 72 72 6f 72 	movabs $0x43203a726f727245,%rax
  4027c1:	3a 20 43 
  4027c4:	48 89 03             	mov    %rax,(%rbx)
  4027c7:	48 b8 6c 69 65 6e 74 	movabs $0x6e7520746e65696c,%rax
  4027ce:	20 75 6e 
  4027d1:	48 89 43 08          	mov    %rax,0x8(%rbx)
  4027d5:	48 b8 61 62 6c 65 20 	movabs $0x206f7420656c6261,%rax
  4027dc:	74 6f 20 
  4027df:	48 89 43 10          	mov    %rax,0x10(%rbx)
  4027e3:	48 b8 77 72 69 74 65 	movabs $0x6f74206574697277,%rax
  4027ea:	20 74 6f 
  4027ed:	48 89 43 18          	mov    %rax,0x18(%rbx)
  4027f1:	48 b8 20 74 68 65 20 	movabs $0x7365722065687420,%rax
  4027f8:	72 65 73 
  4027fb:	48 89 43 20          	mov    %rax,0x20(%rbx)
  4027ff:	48 b8 75 6c 74 20 73 	movabs $0x7672657320746c75,%rax
  402806:	65 72 76 
  402809:	48 89 43 28          	mov    %rax,0x28(%rbx)
  40280d:	66 c7 43 30 65 72    	movw   $0x7265,0x30(%rbx)
  402813:	c6 43 32 00          	movb   $0x0,0x32(%rbx)
  402817:	89 ef                	mov    %ebp,%edi
  402819:	e8 12 e5 ff ff       	call   400d30 <close@plt>
  40281e:	b8 ff ff ff ff       	mov    $0xffffffff,%eax
  402823:	e9 1e 03 00 00       	jmp    402b46 <submitr+0x746>
  402828:	89 ee                	mov    %ebp,%esi
  40282a:	48 8d 7c 24 30       	lea    0x30(%rsp),%rdi
  40282f:	e8 ee f8 ff ff       	call   402122 <rio_readinitb>
  402834:	ba 00 20 00 00       	mov    $0x2000,%edx
  402839:	48 8d b4 24 40 20 00 	lea    0x2040(%rsp),%rsi
  402840:	00 
  402841:	48 8d 7c 24 30       	lea    0x30(%rsp),%rdi
  402846:	e8 fe f9 ff ff       	call   402249 <rio_readlineb>
  40284b:	48 85 c0             	test   %rax,%rax
  40284e:	7f 7d                	jg     4028cd <submitr+0x4cd>
  402850:	48 b8 45 72 72 6f 72 	movabs $0x43203a726f727245,%rax
  402857:	3a 20 43 
  40285a:	48 89 03             	mov    %rax,(%rbx)
  40285d:	48 b8 6c 69 65 6e 74 	movabs $0x6e7520746e65696c,%rax
  402864:	20 75 6e 
  402867:	48 89 43 08          	mov    %rax,0x8(%rbx)
  40286b:	48 b8 61 62 6c 65 20 	movabs $0x206f7420656c6261,%rax
  402872:	74 6f 20 
  402875:	48 89 43 10          	mov    %rax,0x10(%rbx)
  402879:	48 b8 72 65 61 64 20 	movabs $0x7269662064616572,%rax
  402880:	66 69 72 
  402883:	48 89 43 18          	mov    %rax,0x18(%rbx)
  402887:	48 b8 73 74 20 68 65 	movabs $0x6564616568207473,%rax
  40288e:	61 64 65 
  402891:	48 89 43 20          	mov    %rax,0x20(%rbx)
  402895:	48 b8 72 20 66 72 6f 	movabs $0x72206d6f72662072,%rax
  40289c:	6d 20 72 
  40289f:	48 89 43 28          	mov    %rax,0x28(%rbx)
  4028a3:	48 b8 65 73 75 6c 74 	movabs $0x657320746c757365,%rax
  4028aa:	20 73 65 
  4028ad:	48 89 43 30          	mov    %rax,0x30(%rbx)
  4028b1:	c7 43 38 72 76 65 72 	movl   $0x72657672,0x38(%rbx)
  4028b8:	c6 43 3c 00          	movb   $0x0,0x3c(%rbx)
  4028bc:	89 ef                	mov    %ebp,%edi
  4028be:	e8 6d e4 ff ff       	call   400d30 <close@plt>
  4028c3:	b8 ff ff ff ff       	mov    $0xffffffff,%eax
  4028c8:	e9 79 02 00 00       	jmp    402b46 <submitr+0x746>
  4028cd:	4c 8d 84 24 40 80 00 	lea    0x8040(%rsp),%r8
  4028d4:	00 
  4028d5:	48 8d 4c 24 1c       	lea    0x1c(%rsp),%rcx
  4028da:	48 8d 94 24 40 60 00 	lea    0x6040(%rsp),%rdx
  4028e1:	00 
  4028e2:	be af 37 40 00       	mov    $0x4037af,%esi
  4028e7:	48 8d bc 24 40 20 00 	lea    0x2040(%rsp),%rdi
  4028ee:	00 
  4028ef:	b8 00 00 00 00       	mov    $0x0,%eax
  4028f4:	e8 e7 e4 ff ff       	call   400de0 <__isoc99_sscanf@plt>
  4028f9:	e9 95 00 00 00       	jmp    402993 <submitr+0x593>
  4028fe:	ba 00 20 00 00       	mov    $0x2000,%edx
  402903:	48 8d b4 24 40 20 00 	lea    0x2040(%rsp),%rsi
  40290a:	00 
  40290b:	48 8d 7c 24 30       	lea    0x30(%rsp),%rdi
  402910:	e8 34 f9 ff ff       	call   402249 <rio_readlineb>
  402915:	48 85 c0             	test   %rax,%rax
  402918:	7f 79                	jg     402993 <submitr+0x593>
  40291a:	48 b8 45 72 72 6f 72 	movabs $0x43203a726f727245,%rax
  402921:	3a 20 43 
  402924:	48 89 03             	mov    %rax,(%rbx)
  402927:	48 b8 6c 69 65 6e 74 	movabs $0x6e7520746e65696c,%rax
  40292e:	20 75 6e 
  402931:	48 89 43 08          	mov    %rax,0x8(%rbx)
  402935:	48 b8 61 62 6c 65 20 	movabs $0x206f7420656c6261,%rax
  40293c:	74 6f 20 
  40293f:	48 89 43 10          	mov    %rax,0x10(%rbx)
  402943:	48 b8 72 65 61 64 20 	movabs $0x6165682064616572,%rax
  40294a:	68 65 61 
  40294d:	48 89 43 18          	mov    %rax,0x18(%rbx)
  402951:	48 b8 64 65 72 73 20 	movabs $0x6f72662073726564,%rax
  402958:	66 72 6f 
  40295b:	48 89 43 20          	mov    %rax,0x20(%rbx)
  40295f:	48 b8 6d 20 74 68 65 	movabs $0x657220656874206d,%rax
  402966:	20 72 65 
  402969:	48 89 43 28          	mov    %rax,0x28(%rbx)
  40296d:	48 b8 73 75 6c 74 20 	movabs $0x72657320746c7573,%rax
  402974:	73 65 72 
  402977:	48 89 43 30          	mov    %rax,0x30(%rbx)
  40297b:	c7 43 38 76 65 72 00 	movl   $0x726576,0x38(%rbx)
  402982:	89 ef                	mov    %ebp,%edi
  402984:	e8 a7 e3 ff ff       	call   400d30 <close@plt>
  402989:	b8 ff ff ff ff       	mov    $0xffffffff,%eax
  40298e:	e9 b3 01 00 00       	jmp    402b46 <submitr+0x746>
  402993:	0f b6 94 24 40 20 00 	movzbl 0x2040(%rsp),%edx
  40299a:	00 
  40299b:	b8 0d 00 00 00       	mov    $0xd,%eax
  4029a0:	29 d0                	sub    %edx,%eax
  4029a2:	75 1b                	jne    4029bf <submitr+0x5bf>
  4029a4:	0f b6 94 24 41 20 00 	movzbl 0x2041(%rsp),%edx
  4029ab:	00 
  4029ac:	b8 0a 00 00 00       	mov    $0xa,%eax
  4029b1:	29 d0                	sub    %edx,%eax
  4029b3:	75 0a                	jne    4029bf <submitr+0x5bf>
  4029b5:	0f b6 84 24 42 20 00 	movzbl 0x2042(%rsp),%eax
  4029bc:	00 
  4029bd:	f7 d8                	neg    %eax
  4029bf:	85 c0                	test   %eax,%eax
  4029c1:	0f 85 37 ff ff ff    	jne    4028fe <submitr+0x4fe>
  4029c7:	ba 00 20 00 00       	mov    $0x2000,%edx
  4029cc:	48 8d b4 24 40 20 00 	lea    0x2040(%rsp),%rsi
  4029d3:	00 
  4029d4:	48 8d 7c 24 30       	lea    0x30(%rsp),%rdi
  4029d9:	e8 6b f8 ff ff       	call   402249 <rio_readlineb>
  4029de:	48 85 c0             	test   %rax,%rax
  4029e1:	0f 8f 83 00 00 00    	jg     402a6a <submitr+0x66a>
  4029e7:	48 b8 45 72 72 6f 72 	movabs $0x43203a726f727245,%rax
  4029ee:	3a 20 43 
  4029f1:	48 89 03             	mov    %rax,(%rbx)
  4029f4:	48 b8 6c 69 65 6e 74 	movabs $0x6e7520746e65696c,%rax
  4029fb:	20 75 6e 
  4029fe:	48 89 43 08          	mov    %rax,0x8(%rbx)
  402a02:	48 b8 61 62 6c 65 20 	movabs $0x206f7420656c6261,%rax
  402a09:	74 6f 20 
  402a0c:	48 89 43 10          	mov    %rax,0x10(%rbx)
  402a10:	48 b8 72 65 61 64 20 	movabs $0x6174732064616572,%rax
  402a17:	73 74 61 
  402a1a:	48 89 43 18          	mov    %rax,0x18(%rbx)
  402a1e:	48 b8 74 75 73 20 6d 	movabs $0x7373656d20737574,%rax
  402a25:	65 73 73 
  402a28:	48 89 43 20          	mov    %rax,0x20(%rbx)
  402a2c:	48 b8 61 67 65 20 66 	movabs $0x6d6f726620656761,%rax
  402a33:	72 6f 6d 
  402a36:	48 89 43 28          	mov    %rax,0x28(%rbx)
  402a3a:	48 b8 20 72 65 73 75 	movabs $0x20746c7573657220,%rax
  402a41:	6c 74 20 
  402a44:	48 89 43 30          	mov    %rax,0x30(%rbx)
  402a48:	c7 43 38 73 65 72 76 	movl   $0x76726573,0x38(%rbx)
  402a4f:	66 c7 43 3c 65 72    	movw   $0x7265,0x3c(%rbx)
  402a55:	c6 43 3e 00          	movb   $0x0,0x3e(%rbx)
  402a59:	89 ef                	mov    %ebp,%edi
  402a5b:	e8 d0 e2 ff ff       	call   400d30 <close@plt>
  402a60:	b8 ff ff ff ff       	mov    $0xffffffff,%eax
  402a65:	e9 dc 00 00 00       	jmp    402b46 <submitr+0x746>
  402a6a:	44 8b 44 24 1c       	mov    0x1c(%rsp),%r8d
  402a6f:	41 81 f8 c8 00 00 00 	cmp    $0xc8,%r8d
  402a76:	74 37                	je     402aaf <submitr+0x6af>
  402a78:	4c 8d 8c 24 40 80 00 	lea    0x8040(%rsp),%r9
  402a7f:	00 
  402a80:	b9 78 37 40 00       	mov    $0x403778,%ecx
  402a85:	48 c7 c2 ff ff ff ff 	mov    $0xffffffffffffffff,%rdx
  402a8c:	be 01 00 00 00       	mov    $0x1,%esi
  402a91:	48 89 df             	mov    %rbx,%rdi
  402a94:	b8 00 00 00 00       	mov    $0x0,%eax
  402a99:	e8 e2 e3 ff ff       	call   400e80 <__sprintf_chk@plt>
  402a9e:	89 ef                	mov    %ebp,%edi
  402aa0:	e8 8b e2 ff ff       	call   400d30 <close@plt>
  402aa5:	b8 ff ff ff ff       	mov    $0xffffffff,%eax
  402aaa:	e9 97 00 00 00       	jmp    402b46 <submitr+0x746>
  402aaf:	48 8d b4 24 40 20 00 	lea    0x2040(%rsp),%rsi
  402ab6:	00 
  402ab7:	48 89 df             	mov    %rbx,%rdi
  402aba:	e8 01 e2 ff ff       	call   400cc0 <strcpy@plt>
  402abf:	89 ef                	mov    %ebp,%edi
  402ac1:	e8 6a e2 ff ff       	call   400d30 <close@plt>
  402ac6:	0f b6 03             	movzbl (%rbx),%eax
  402ac9:	ba 4f 00 00 00       	mov    $0x4f,%edx
  402ace:	29 c2                	sub    %eax,%edx
  402ad0:	75 22                	jne    402af4 <submitr+0x6f4>
  402ad2:	0f b6 4b 01          	movzbl 0x1(%rbx),%ecx
  402ad6:	b8 4b 00 00 00       	mov    $0x4b,%eax
  402adb:	29 c8                	sub    %ecx,%eax
  402add:	75 17                	jne    402af6 <submitr+0x6f6>
  402adf:	0f b6 4b 02          	movzbl 0x2(%rbx),%ecx
  402ae3:	b8 0a 00 00 00       	mov    $0xa,%eax
  402ae8:	29 c8                	sub    %ecx,%eax
  402aea:	75 0a                	jne    402af6 <submitr+0x6f6>
  402aec:	0f b6 43 03          	movzbl 0x3(%rbx),%eax
  402af0:	f7 d8                	neg    %eax
  402af2:	eb 02                	jmp    402af6 <submitr+0x6f6>
  402af4:	89 d0                	mov    %edx,%eax
  402af6:	85 c0                	test   %eax,%eax
  402af8:	74 40                	je     402b3a <submitr+0x73a>
  402afa:	bf c0 37 40 00       	mov    $0x4037c0,%edi
  402aff:	b9 05 00 00 00       	mov    $0x5,%ecx
  402b04:	48 89 de             	mov    %rbx,%rsi
  402b07:	f3 a6                	repz cmpsb %es:(%rdi),%ds:(%rsi)
  402b09:	0f 97 c0             	seta   %al
  402b0c:	0f 92 c1             	setb   %cl
  402b0f:	29 c8                	sub    %ecx,%eax
  402b11:	0f be c0             	movsbl %al,%eax
  402b14:	85 c0                	test   %eax,%eax
  402b16:	74 2e                	je     402b46 <submitr+0x746>
  402b18:	85 d2                	test   %edx,%edx
  402b1a:	75 13                	jne    402b2f <submitr+0x72f>
  402b1c:	0f b6 43 01          	movzbl 0x1(%rbx),%eax
  402b20:	ba 4b 00 00 00       	mov    $0x4b,%edx
  402b25:	29 c2                	sub    %eax,%edx
  402b27:	75 06                	jne    402b2f <submitr+0x72f>
  402b29:	0f b6 53 02          	movzbl 0x2(%rbx),%edx
  402b2d:	f7 da                	neg    %edx
  402b2f:	85 d2                	test   %edx,%edx
  402b31:	75 0e                	jne    402b41 <submitr+0x741>
  402b33:	b8 00 00 00 00       	mov    $0x0,%eax
  402b38:	eb 0c                	jmp    402b46 <submitr+0x746>
  402b3a:	b8 00 00 00 00       	mov    $0x0,%eax
  402b3f:	eb 05                	jmp    402b46 <submitr+0x746>
  402b41:	b8 ff ff ff ff       	mov    $0xffffffff,%eax
  402b46:	48 8b 9c 24 48 a0 00 	mov    0xa048(%rsp),%rbx
  402b4d:	00 
  402b4e:	64 48 33 1c 25 28 00 	xor    %fs:0x28,%rbx
  402b55:	00 00 
  402b57:	74 05                	je     402b5e <submitr+0x75e>
  402b59:	e8 92 e1 ff ff       	call   400cf0 <__stack_chk_fail@plt>
  402b5e:	48 81 c4 58 a0 00 00 	add    $0xa058,%rsp
  402b65:	5b                   	pop    %rbx
  402b66:	5d                   	pop    %rbp
  402b67:	41 5c                	pop    %r12
  402b69:	41 5d                	pop    %r13
  402b6b:	41 5e                	pop    %r14
  402b6d:	41 5f                	pop    %r15
  402b6f:	c3                   	ret    

0000000000402b70 <init_timeout>:
  402b70:	85 ff                	test   %edi,%edi
  402b72:	74 23                	je     402b97 <init_timeout+0x27>
  402b74:	53                   	push   %rbx
  402b75:	89 fb                	mov    %edi,%ebx
  402b77:	85 ff                	test   %edi,%edi
  402b79:	79 05                	jns    402b80 <init_timeout+0x10>
  402b7b:	bb 00 00 00 00       	mov    $0x0,%ebx
  402b80:	be 34 21 40 00       	mov    $0x402134,%esi
  402b85:	bf 0e 00 00 00       	mov    $0xe,%edi
  402b8a:	e8 d1 e1 ff ff       	call   400d60 <signal@plt>
  402b8f:	89 df                	mov    %ebx,%edi
  402b91:	e8 8a e1 ff ff       	call   400d20 <alarm@plt>
  402b96:	5b                   	pop    %rbx
  402b97:	f3 c3                	repz ret 

0000000000402b99 <init_driver>:
  402b99:	55                   	push   %rbp
  402b9a:	53                   	push   %rbx
  402b9b:	48 83 ec 28          	sub    $0x28,%rsp
  402b9f:	48 89 fd             	mov    %rdi,%rbp
  402ba2:	64 48 8b 04 25 28 00 	mov    %fs:0x28,%rax
  402ba9:	00 00 
  402bab:	48 89 44 24 18       	mov    %rax,0x18(%rsp)
  402bb0:	31 c0                	xor    %eax,%eax
  402bb2:	be 01 00 00 00       	mov    $0x1,%esi
  402bb7:	bf 0d 00 00 00       	mov    $0xd,%edi
  402bbc:	e8 9f e1 ff ff       	call   400d60 <signal@plt>
  402bc1:	be 01 00 00 00       	mov    $0x1,%esi
  402bc6:	bf 1d 00 00 00       	mov    $0x1d,%edi
  402bcb:	e8 90 e1 ff ff       	call   400d60 <signal@plt>
  402bd0:	be 01 00 00 00       	mov    $0x1,%esi
  402bd5:	bf 1d 00 00 00       	mov    $0x1d,%edi
  402bda:	e8 81 e1 ff ff       	call   400d60 <signal@plt>
  402bdf:	ba 00 00 00 00       	mov    $0x0,%edx
  402be4:	be 01 00 00 00       	mov    $0x1,%esi
  402be9:	bf 02 00 00 00       	mov    $0x2,%edi
  402bee:	e8 9d e2 ff ff       	call   400e90 <socket@plt>
  402bf3:	85 c0                	test   %eax,%eax
  402bf5:	79 4f                	jns    402c46 <init_driver+0xad>
  402bf7:	48 b8 45 72 72 6f 72 	movabs $0x43203a726f727245,%rax
  402bfe:	3a 20 43 
  402c01:	48 89 45 00          	mov    %rax,0x0(%rbp)
  402c05:	48 b8 6c 69 65 6e 74 	movabs $0x6e7520746e65696c,%rax
  402c0c:	20 75 6e 
  402c0f:	48 89 45 08          	mov    %rax,0x8(%rbp)
  402c13:	48 b8 61 62 6c 65 20 	movabs $0x206f7420656c6261,%rax
  402c1a:	74 6f 20 
  402c1d:	48 89 45 10          	mov    %rax,0x10(%rbp)
  402c21:	48 b8 63 72 65 61 74 	movabs $0x7320657461657263,%rax
  402c28:	65 20 73 
  402c2b:	48 89 45 18          	mov    %rax,0x18(%rbp)
  402c2f:	c7 45 20 6f 63 6b 65 	movl   $0x656b636f,0x20(%rbp)
  402c36:	66 c7 45 24 74 00    	movw   $0x74,0x24(%rbp)
  402c3c:	b8 ff ff ff ff       	mov    $0xffffffff,%eax
  402c41:	e9 2a 01 00 00       	jmp    402d70 <init_driver+0x1d7>
  402c46:	89 c3                	mov    %eax,%ebx
  402c48:	bf c5 37 40 00       	mov    $0x4037c5,%edi
  402c4d:	e8 1e e1 ff ff       	call   400d70 <gethostbyname@plt>
  402c52:	48 85 c0             	test   %rax,%rax
  402c55:	75 68                	jne    402cbf <init_driver+0x126>
  402c57:	48 b8 45 72 72 6f 72 	movabs $0x44203a726f727245,%rax
  402c5e:	3a 20 44 
  402c61:	48 89 45 00          	mov    %rax,0x0(%rbp)
  402c65:	48 b8 4e 53 20 69 73 	movabs $0x6e7520736920534e,%rax
  402c6c:	20 75 6e 
  402c6f:	48 89 45 08          	mov    %rax,0x8(%rbp)
  402c73:	48 b8 61 62 6c 65 20 	movabs $0x206f7420656c6261,%rax
  402c7a:	74 6f 20 
  402c7d:	48 89 45 10          	mov    %rax,0x10(%rbp)
  402c81:	48 b8 72 65 73 6f 6c 	movabs $0x2065766c6f736572,%rax
  402c88:	76 65 20 
  402c8b:	48 89 45 18          	mov    %rax,0x18(%rbp)
  402c8f:	48 b8 73 65 72 76 65 	movabs $0x6120726576726573,%rax
  402c96:	72 20 61 
  402c99:	48 89 45 20          	mov    %rax,0x20(%rbp)
  402c9d:	c7 45 28 64 64 72 65 	movl   $0x65726464,0x28(%rbp)
  402ca4:	66 c7 45 2c 73 73    	movw   $0x7373,0x2c(%rbp)
  402caa:	c6 45 2e 00          	movb   $0x0,0x2e(%rbp)
  402cae:	89 df                	mov    %ebx,%edi
  402cb0:	e8 7b e0 ff ff       	call   400d30 <close@plt>
  402cb5:	b8 ff ff ff ff       	mov    $0xffffffff,%eax
  402cba:	e9 b1 00 00 00       	jmp    402d70 <init_driver+0x1d7>
  402cbf:	48 c7 04 24 00 00 00 	movq   $0x0,(%rsp)
  402cc6:	00 
  402cc7:	48 c7 44 24 08 00 00 	movq   $0x0,0x8(%rsp)
  402cce:	00 00 
  402cd0:	66 c7 04 24 02 00    	movw   $0x2,(%rsp)
  402cd6:	48 63 50 14          	movslq 0x14(%rax),%rdx
  402cda:	48 8b 40 18          	mov    0x18(%rax),%rax
  402cde:	48 8b 30             	mov    (%rax),%rsi
  402ce1:	48 8d 7c 24 04       	lea    0x4(%rsp),%rdi
  402ce6:	b9 0c 00 00 00       	mov    $0xc,%ecx
  402ceb:	e8 90 e0 ff ff       	call   400d80 <__memmove_chk@plt>
  402cf0:	66 c7 44 24 02 3c 9a 	movw   $0x9a3c,0x2(%rsp)
  402cf7:	ba 10 00 00 00       	mov    $0x10,%edx
  402cfc:	48 89 e6             	mov    %rsp,%rsi
  402cff:	89 df                	mov    %ebx,%edi
  402d01:	e8 5a e1 ff ff       	call   400e60 <connect@plt>
  402d06:	85 c0                	test   %eax,%eax
  402d08:	79 50                	jns    402d5a <init_driver+0x1c1>
  402d0a:	48 b8 45 72 72 6f 72 	movabs $0x55203a726f727245,%rax
  402d11:	3a 20 55 
  402d14:	48 89 45 00          	mov    %rax,0x0(%rbp)
  402d18:	48 b8 6e 61 62 6c 65 	movabs $0x6f7420656c62616e,%rax
  402d1f:	20 74 6f 
  402d22:	48 89 45 08          	mov    %rax,0x8(%rbp)
  402d26:	48 b8 20 63 6f 6e 6e 	movabs $0x7463656e6e6f6320,%rax
  402d2d:	65 63 74 
  402d30:	48 89 45 10          	mov    %rax,0x10(%rbp)
  402d34:	48 b8 20 74 6f 20 73 	movabs $0x76726573206f7420,%rax
  402d3b:	65 72 76 
  402d3e:	48 89 45 18          	mov    %rax,0x18(%rbp)
  402d42:	66 c7 45 20 65 72    	movw   $0x7265,0x20(%rbp)
  402d48:	c6 45 22 00          	movb   $0x0,0x22(%rbp)
  402d4c:	89 df                	mov    %ebx,%edi
  402d4e:	e8 dd df ff ff       	call   400d30 <close@plt>
  402d53:	b8 ff ff ff ff       	mov    $0xffffffff,%eax
  402d58:	eb 16                	jmp    402d70 <init_driver+0x1d7>
  402d5a:	89 df                	mov    %ebx,%edi
  402d5c:	e8 cf df ff ff       	call   400d30 <close@plt>
  402d61:	66 c7 45 00 4f 4b    	movw   $0x4b4f,0x0(%rbp)
  402d67:	c6 45 02 00          	movb   $0x0,0x2(%rbp)
  402d6b:	b8 00 00 00 00       	mov    $0x0,%eax
  402d70:	48 8b 4c 24 18       	mov    0x18(%rsp),%rcx
  402d75:	64 48 33 0c 25 28 00 	xor    %fs:0x28,%rcx
  402d7c:	00 00 
  402d7e:	74 05                	je     402d85 <init_driver+0x1ec>
  402d80:	e8 6b df ff ff       	call   400cf0 <__stack_chk_fail@plt>
  402d85:	48 83 c4 28          	add    $0x28,%rsp
  402d89:	5b                   	pop    %rbx
  402d8a:	5d                   	pop    %rbp
  402d8b:	c3                   	ret    

0000000000402d8c <driver_post>:
  402d8c:	53                   	push   %rbx
  402d8d:	4c 89 cb             	mov    %r9,%rbx
  402d90:	45 85 c0             	test   %r8d,%r8d
  402d93:	74 27                	je     402dbc <driver_post+0x30>
  402d95:	48 89 ca             	mov    %rcx,%rdx
  402d98:	be d3 37 40 00       	mov    $0x4037d3,%esi
  402d9d:	bf 01 00 00 00       	mov    $0x1,%edi
  402da2:	b8 00 00 00 00       	mov    $0x0,%eax
  402da7:	e8 54 e0 ff ff       	call   400e00 <__printf_chk@plt>
  402dac:	66 c7 03 4f 4b       	movw   $0x4b4f,(%rbx)
  402db1:	c6 43 02 00          	movb   $0x0,0x2(%rbx)
  402db5:	b8 00 00 00 00       	mov    $0x0,%eax
  402dba:	eb 3f                	jmp    402dfb <driver_post+0x6f>
  402dbc:	48 85 ff             	test   %rdi,%rdi
  402dbf:	74 2c                	je     402ded <driver_post+0x61>
  402dc1:	80 3f 00             	cmpb   $0x0,(%rdi)
  402dc4:	74 27                	je     402ded <driver_post+0x61>
  402dc6:	48 83 ec 08          	sub    $0x8,%rsp
  402dca:	41 51                	push   %r9
  402dcc:	49 89 c9             	mov    %rcx,%r9
  402dcf:	49 89 d0             	mov    %rdx,%r8
  402dd2:	48 89 f9             	mov    %rdi,%rcx
  402dd5:	48 89 f2             	mov    %rsi,%rdx
  402dd8:	be 9a 3c 00 00       	mov    $0x3c9a,%esi
  402ddd:	bf c5 37 40 00       	mov    $0x4037c5,%edi
  402de2:	e8 19 f6 ff ff       	call   402400 <submitr>
  402de7:	48 83 c4 10          	add    $0x10,%rsp
  402deb:	eb 0e                	jmp    402dfb <driver_post+0x6f>
  402ded:	66 c7 03 4f 4b       	movw   $0x4b4f,(%rbx)
  402df2:	c6 43 02 00          	movb   $0x0,0x2(%rbx)
  402df6:	b8 00 00 00 00       	mov    $0x0,%eax
  402dfb:	5b                   	pop    %rbx
  402dfc:	c3                   	ret    

0000000000402dfd <check>:
  402dfd:	89 f8                	mov    %edi,%eax
  402dff:	c1 e8 1c             	shr    $0x1c,%eax
  402e02:	85 c0                	test   %eax,%eax
  402e04:	74 1d                	je     402e23 <check+0x26>
  402e06:	b9 00 00 00 00       	mov    $0x0,%ecx
  402e0b:	eb 0b                	jmp    402e18 <check+0x1b>
  402e0d:	89 f8                	mov    %edi,%eax
  402e0f:	d3 e8                	shr    %cl,%eax
  402e11:	3c 0a                	cmp    $0xa,%al
  402e13:	74 14                	je     402e29 <check+0x2c>
  402e15:	83 c1 08             	add    $0x8,%ecx
  402e18:	83 f9 1f             	cmp    $0x1f,%ecx
  402e1b:	7e f0                	jle    402e0d <check+0x10>
  402e1d:	b8 01 00 00 00       	mov    $0x1,%eax
  402e22:	c3                   	ret    
  402e23:	b8 00 00 00 00       	mov    $0x0,%eax
  402e28:	c3                   	ret    
  402e29:	b8 00 00 00 00       	mov    $0x0,%eax
  402e2e:	c3                   	ret    

0000000000402e2f <gencookie>:
  402e2f:	53                   	push   %rbx
  402e30:	83 c7 01             	add    $0x1,%edi
  402e33:	e8 68 de ff ff       	call   400ca0 <srandom@plt>
  402e38:	e8 83 df ff ff       	call   400dc0 <random@plt>
  402e3d:	89 c3                	mov    %eax,%ebx
  402e3f:	89 c7                	mov    %eax,%edi
  402e41:	e8 b7 ff ff ff       	call   402dfd <check>
  402e46:	85 c0                	test   %eax,%eax
  402e48:	74 ee                	je     402e38 <gencookie+0x9>
  402e4a:	89 d8                	mov    %ebx,%eax
  402e4c:	5b                   	pop    %rbx
  402e4d:	c3                   	ret    
  402e4e:	66 90                	xchg   %ax,%ax

0000000000402e50 <__libc_csu_init>:
  402e50:	41 57                	push   %r15
  402e52:	41 56                	push   %r14
  402e54:	41 89 ff             	mov    %edi,%r15d
  402e57:	41 55                	push   %r13
  402e59:	41 54                	push   %r12
  402e5b:	4c 8d 25 ae 1f 20 00 	lea    0x201fae(%rip),%r12        # 604e10 <__frame_dummy_init_array_entry>
  402e62:	55                   	push   %rbp
  402e63:	48 8d 2d ae 1f 20 00 	lea    0x201fae(%rip),%rbp        # 604e18 <__do_global_dtors_aux_fini_array_entry>
  402e6a:	53                   	push   %rbx
  402e6b:	49 89 f6             	mov    %rsi,%r14
  402e6e:	49 89 d5             	mov    %rdx,%r13
  402e71:	4c 29 e5             	sub    %r12,%rbp
  402e74:	48 83 ec 08          	sub    $0x8,%rsp
  402e78:	48 c1 fd 03          	sar    $0x3,%rbp
  402e7c:	e8 c7 dd ff ff       	call   400c48 <_init>
  402e81:	48 85 ed             	test   %rbp,%rbp
  402e84:	74 20                	je     402ea6 <__libc_csu_init+0x56>
  402e86:	31 db                	xor    %ebx,%ebx
  402e88:	0f 1f 84 00 00 00 00 	nopl   0x0(%rax,%rax,1)
  402e8f:	00 
  402e90:	4c 89 ea             	mov    %r13,%rdx
  402e93:	4c 89 f6             	mov    %r14,%rsi
  402e96:	44 89 ff             	mov    %r15d,%edi
  402e99:	41 ff 14 dc          	call   *(%r12,%rbx,8)
  402e9d:	48 83 c3 01          	add    $0x1,%rbx
  402ea1:	48 39 eb             	cmp    %rbp,%rbx
  402ea4:	75 ea                	jne    402e90 <__libc_csu_init+0x40>
  402ea6:	48 83 c4 08          	add    $0x8,%rsp
  402eaa:	5b                   	pop    %rbx
  402eab:	5d                   	pop    %rbp
  402eac:	41 5c                	pop    %r12
  402eae:	41 5d                	pop    %r13
  402eb0:	41 5e                	pop    %r14
  402eb2:	41 5f                	pop    %r15
  402eb4:	c3                   	ret    
  402eb5:	90                   	nop
  402eb6:	66 2e 0f 1f 84 00 00 	cs nopw 0x0(%rax,%rax,1)
  402ebd:	00 00 00 

0000000000402ec0 <__libc_csu_fini>:
  402ec0:	f3 c3                	repz ret 

Disassembly of section .fini:

0000000000402ec4 <_fini>:
  402ec4:	48 83 ec 08          	sub    $0x8,%rsp
  402ec8:	48 83 c4 08          	add    $0x8,%rsp
  402ecc:	c3                   	ret    
