
rtarget:     file format elf64-x86-64


Disassembly of section .init:

0000000000400c48 <_init>:
  400c48:	48 83 ec 08          	sub    $0x8,%rsp
  400c4c:	48 8b 05 a5 43 20 00 	mov    0x2043a5(%rip),%rax        # 604ff8 <__gmon_start__>
  400c53:	48 85 c0             	test   %rax,%rax
  400c56:	74 05                	je     400c5d <_init+0x15>
  400c58:	e8 43 02 00 00       	call   400ea0 <__gmon_start__@plt>
  400c5d:	48 83 c4 08          	add    $0x8,%rsp
  400c61:	c3                   	ret    

Disassembly of section .plt:

0000000000400c70 <.plt>:
  400c70:	ff 35 92 43 20 00    	push   0x204392(%rip)        # 605008 <_GLOBAL_OFFSET_TABLE_+0x8>
  400c76:	ff 25 94 43 20 00    	jmp    *0x204394(%rip)        # 605010 <_GLOBAL_OFFSET_TABLE_+0x10>
  400c7c:	0f 1f 40 00          	nopl   0x0(%rax)

0000000000400c80 <strcasecmp@plt>:
  400c80:	ff 25 92 43 20 00    	jmp    *0x204392(%rip)        # 605018 <strcasecmp@GLIBC_2.2.5>
  400c86:	68 00 00 00 00       	push   $0x0
  400c8b:	e9 e0 ff ff ff       	jmp    400c70 <.plt>

0000000000400c90 <__errno_location@plt>:
  400c90:	ff 25 8a 43 20 00    	jmp    *0x20438a(%rip)        # 605020 <__errno_location@GLIBC_2.2.5>
  400c96:	68 01 00 00 00       	push   $0x1
  400c9b:	e9 d0 ff ff ff       	jmp    400c70 <.plt>

0000000000400ca0 <srandom@plt>:
  400ca0:	ff 25 82 43 20 00    	jmp    *0x204382(%rip)        # 605028 <srandom@GLIBC_2.2.5>
  400ca6:	68 02 00 00 00       	push   $0x2
  400cab:	e9 c0 ff ff ff       	jmp    400c70 <.plt>

0000000000400cb0 <strncmp@plt>:
  400cb0:	ff 25 7a 43 20 00    	jmp    *0x20437a(%rip)        # 605030 <strncmp@GLIBC_2.2.5>
  400cb6:	68 03 00 00 00       	push   $0x3
  400cbb:	e9 b0 ff ff ff       	jmp    400c70 <.plt>

0000000000400cc0 <strcpy@plt>:
  400cc0:	ff 25 72 43 20 00    	jmp    *0x204372(%rip)        # 605038 <strcpy@GLIBC_2.2.5>
  400cc6:	68 04 00 00 00       	push   $0x4
  400ccb:	e9 a0 ff ff ff       	jmp    400c70 <.plt>

0000000000400cd0 <puts@plt>:
  400cd0:	ff 25 6a 43 20 00    	jmp    *0x20436a(%rip)        # 605040 <puts@GLIBC_2.2.5>
  400cd6:	68 05 00 00 00       	push   $0x5
  400cdb:	e9 90 ff ff ff       	jmp    400c70 <.plt>

0000000000400ce0 <write@plt>:
  400ce0:	ff 25 62 43 20 00    	jmp    *0x204362(%rip)        # 605048 <write@GLIBC_2.2.5>
  400ce6:	68 06 00 00 00       	push   $0x6
  400ceb:	e9 80 ff ff ff       	jmp    400c70 <.plt>

0000000000400cf0 <__stack_chk_fail@plt>:
  400cf0:	ff 25 5a 43 20 00    	jmp    *0x20435a(%rip)        # 605050 <__stack_chk_fail@GLIBC_2.4>
  400cf6:	68 07 00 00 00       	push   $0x7
  400cfb:	e9 70 ff ff ff       	jmp    400c70 <.plt>

0000000000400d00 <mmap@plt>:
  400d00:	ff 25 52 43 20 00    	jmp    *0x204352(%rip)        # 605058 <mmap@GLIBC_2.2.5>
  400d06:	68 08 00 00 00       	push   $0x8
  400d0b:	e9 60 ff ff ff       	jmp    400c70 <.plt>

0000000000400d10 <memset@plt>:
  400d10:	ff 25 4a 43 20 00    	jmp    *0x20434a(%rip)        # 605060 <memset@GLIBC_2.2.5>
  400d16:	68 09 00 00 00       	push   $0x9
  400d1b:	e9 50 ff ff ff       	jmp    400c70 <.plt>

0000000000400d20 <alarm@plt>:
  400d20:	ff 25 42 43 20 00    	jmp    *0x204342(%rip)        # 605068 <alarm@GLIBC_2.2.5>
  400d26:	68 0a 00 00 00       	push   $0xa
  400d2b:	e9 40 ff ff ff       	jmp    400c70 <.plt>

0000000000400d30 <close@plt>:
  400d30:	ff 25 3a 43 20 00    	jmp    *0x20433a(%rip)        # 605070 <close@GLIBC_2.2.5>
  400d36:	68 0b 00 00 00       	push   $0xb
  400d3b:	e9 30 ff ff ff       	jmp    400c70 <.plt>

0000000000400d40 <read@plt>:
  400d40:	ff 25 32 43 20 00    	jmp    *0x204332(%rip)        # 605078 <read@GLIBC_2.2.5>
  400d46:	68 0c 00 00 00       	push   $0xc
  400d4b:	e9 20 ff ff ff       	jmp    400c70 <.plt>

0000000000400d50 <__libc_start_main@plt>:
  400d50:	ff 25 2a 43 20 00    	jmp    *0x20432a(%rip)        # 605080 <__libc_start_main@GLIBC_2.2.5>
  400d56:	68 0d 00 00 00       	push   $0xd
  400d5b:	e9 10 ff ff ff       	jmp    400c70 <.plt>

0000000000400d60 <signal@plt>:
  400d60:	ff 25 22 43 20 00    	jmp    *0x204322(%rip)        # 605088 <signal@GLIBC_2.2.5>
  400d66:	68 0e 00 00 00       	push   $0xe
  400d6b:	e9 00 ff ff ff       	jmp    400c70 <.plt>

0000000000400d70 <gethostbyname@plt>:
  400d70:	ff 25 1a 43 20 00    	jmp    *0x20431a(%rip)        # 605090 <gethostbyname@GLIBC_2.2.5>
  400d76:	68 0f 00 00 00       	push   $0xf
  400d7b:	e9 f0 fe ff ff       	jmp    400c70 <.plt>

0000000000400d80 <__memmove_chk@plt>:
  400d80:	ff 25 12 43 20 00    	jmp    *0x204312(%rip)        # 605098 <__memmove_chk@GLIBC_2.3.4>
  400d86:	68 10 00 00 00       	push   $0x10
  400d8b:	e9 e0 fe ff ff       	jmp    400c70 <.plt>

0000000000400d90 <strtol@plt>:
  400d90:	ff 25 0a 43 20 00    	jmp    *0x20430a(%rip)        # 6050a0 <strtol@GLIBC_2.2.5>
  400d96:	68 11 00 00 00       	push   $0x11
  400d9b:	e9 d0 fe ff ff       	jmp    400c70 <.plt>

0000000000400da0 <memcpy@plt>:
  400da0:	ff 25 02 43 20 00    	jmp    *0x204302(%rip)        # 6050a8 <memcpy@GLIBC_2.14>
  400da6:	68 12 00 00 00       	push   $0x12
  400dab:	e9 c0 fe ff ff       	jmp    400c70 <.plt>

0000000000400db0 <time@plt>:
  400db0:	ff 25 fa 42 20 00    	jmp    *0x2042fa(%rip)        # 6050b0 <time@GLIBC_2.2.5>
  400db6:	68 13 00 00 00       	push   $0x13
  400dbb:	e9 b0 fe ff ff       	jmp    400c70 <.plt>

0000000000400dc0 <random@plt>:
  400dc0:	ff 25 f2 42 20 00    	jmp    *0x2042f2(%rip)        # 6050b8 <random@GLIBC_2.2.5>
  400dc6:	68 14 00 00 00       	push   $0x14
  400dcb:	e9 a0 fe ff ff       	jmp    400c70 <.plt>

0000000000400dd0 <_IO_getc@plt>:
  400dd0:	ff 25 ea 42 20 00    	jmp    *0x2042ea(%rip)        # 6050c0 <_IO_getc@GLIBC_2.2.5>
  400dd6:	68 15 00 00 00       	push   $0x15
  400ddb:	e9 90 fe ff ff       	jmp    400c70 <.plt>

0000000000400de0 <__isoc99_sscanf@plt>:
  400de0:	ff 25 e2 42 20 00    	jmp    *0x2042e2(%rip)        # 6050c8 <__isoc99_sscanf@GLIBC_2.7>
  400de6:	68 16 00 00 00       	push   $0x16
  400deb:	e9 80 fe ff ff       	jmp    400c70 <.plt>

0000000000400df0 <munmap@plt>:
  400df0:	ff 25 da 42 20 00    	jmp    *0x2042da(%rip)        # 6050d0 <munmap@GLIBC_2.2.5>
  400df6:	68 17 00 00 00       	push   $0x17
  400dfb:	e9 70 fe ff ff       	jmp    400c70 <.plt>

0000000000400e00 <__printf_chk@plt>:
  400e00:	ff 25 d2 42 20 00    	jmp    *0x2042d2(%rip)        # 6050d8 <__printf_chk@GLIBC_2.3.4>
  400e06:	68 18 00 00 00       	push   $0x18
  400e0b:	e9 60 fe ff ff       	jmp    400c70 <.plt>

0000000000400e10 <fopen@plt>:
  400e10:	ff 25 ca 42 20 00    	jmp    *0x2042ca(%rip)        # 6050e0 <fopen@GLIBC_2.2.5>
  400e16:	68 19 00 00 00       	push   $0x19
  400e1b:	e9 50 fe ff ff       	jmp    400c70 <.plt>

0000000000400e20 <getopt@plt>:
  400e20:	ff 25 c2 42 20 00    	jmp    *0x2042c2(%rip)        # 6050e8 <getopt@GLIBC_2.2.5>
  400e26:	68 1a 00 00 00       	push   $0x1a
  400e2b:	e9 40 fe ff ff       	jmp    400c70 <.plt>

0000000000400e30 <strtoul@plt>:
  400e30:	ff 25 ba 42 20 00    	jmp    *0x2042ba(%rip)        # 6050f0 <strtoul@GLIBC_2.2.5>
  400e36:	68 1b 00 00 00       	push   $0x1b
  400e3b:	e9 30 fe ff ff       	jmp    400c70 <.plt>

0000000000400e40 <gethostname@plt>:
  400e40:	ff 25 b2 42 20 00    	jmp    *0x2042b2(%rip)        # 6050f8 <gethostname@GLIBC_2.2.5>
  400e46:	68 1c 00 00 00       	push   $0x1c
  400e4b:	e9 20 fe ff ff       	jmp    400c70 <.plt>

0000000000400e50 <exit@plt>:
  400e50:	ff 25 aa 42 20 00    	jmp    *0x2042aa(%rip)        # 605100 <exit@GLIBC_2.2.5>
  400e56:	68 1d 00 00 00       	push   $0x1d
  400e5b:	e9 10 fe ff ff       	jmp    400c70 <.plt>

0000000000400e60 <connect@plt>:
  400e60:	ff 25 a2 42 20 00    	jmp    *0x2042a2(%rip)        # 605108 <connect@GLIBC_2.2.5>
  400e66:	68 1e 00 00 00       	push   $0x1e
  400e6b:	e9 00 fe ff ff       	jmp    400c70 <.plt>

0000000000400e70 <__fprintf_chk@plt>:
  400e70:	ff 25 9a 42 20 00    	jmp    *0x20429a(%rip)        # 605110 <__fprintf_chk@GLIBC_2.3.4>
  400e76:	68 1f 00 00 00       	push   $0x1f
  400e7b:	e9 f0 fd ff ff       	jmp    400c70 <.plt>

0000000000400e80 <__sprintf_chk@plt>:
  400e80:	ff 25 92 42 20 00    	jmp    *0x204292(%rip)        # 605118 <__sprintf_chk@GLIBC_2.3.4>
  400e86:	68 20 00 00 00       	push   $0x20
  400e8b:	e9 e0 fd ff ff       	jmp    400c70 <.plt>

0000000000400e90 <socket@plt>:
  400e90:	ff 25 8a 42 20 00    	jmp    *0x20428a(%rip)        # 605120 <socket@GLIBC_2.2.5>
  400e96:	68 21 00 00 00       	push   $0x21
  400e9b:	e9 d0 fd ff ff       	jmp    400c70 <.plt>

Disassembly of section .plt.got:

0000000000400ea0 <__gmon_start__@plt>:
  400ea0:	ff 25 52 41 20 00    	jmp    *0x204152(%rip)        # 604ff8 <__gmon_start__>
  400ea6:	66 90                	xchg   %ax,%ax

Disassembly of section .text:

0000000000400eb0 <_start>:
  400eb0:	31 ed                	xor    %ebp,%ebp
  400eb2:	49 89 d1             	mov    %rdx,%r9
  400eb5:	5e                   	pop    %rsi
  400eb6:	48 89 e2             	mov    %rsp,%rdx
  400eb9:	48 83 e4 f0          	and    $0xfffffffffffffff0,%rsp
  400ebd:	50                   	push   %rax
  400ebe:	54                   	push   %rsp
  400ebf:	49 c7 c0 f0 2f 40 00 	mov    $0x402ff0,%r8
  400ec6:	48 c7 c1 80 2f 40 00 	mov    $0x402f80,%rcx
  400ecd:	48 c7 c7 b5 11 40 00 	mov    $0x4011b5,%rdi
  400ed4:	e8 77 fe ff ff       	call   400d50 <__libc_start_main@plt>
  400ed9:	f4                   	hlt    
  400eda:	66 0f 1f 44 00 00    	nopw   0x0(%rax,%rax,1)

0000000000400ee0 <deregister_tm_clones>:
  400ee0:	b8 b7 54 60 00       	mov    $0x6054b7,%eax
  400ee5:	55                   	push   %rbp
  400ee6:	48 2d b0 54 60 00    	sub    $0x6054b0,%rax
  400eec:	48 83 f8 0e          	cmp    $0xe,%rax
  400ef0:	48 89 e5             	mov    %rsp,%rbp
  400ef3:	76 1b                	jbe    400f10 <deregister_tm_clones+0x30>
  400ef5:	b8 00 00 00 00       	mov    $0x0,%eax
  400efa:	48 85 c0             	test   %rax,%rax
  400efd:	74 11                	je     400f10 <deregister_tm_clones+0x30>
  400eff:	5d                   	pop    %rbp
  400f00:	bf b0 54 60 00       	mov    $0x6054b0,%edi
  400f05:	ff e0                	jmp    *%rax
  400f07:	66 0f 1f 84 00 00 00 	nopw   0x0(%rax,%rax,1)
  400f0e:	00 00 
  400f10:	5d                   	pop    %rbp
  400f11:	c3                   	ret    
  400f12:	0f 1f 40 00          	nopl   0x0(%rax)
  400f16:	66 2e 0f 1f 84 00 00 	cs nopw 0x0(%rax,%rax,1)
  400f1d:	00 00 00 

0000000000400f20 <register_tm_clones>:
  400f20:	be b0 54 60 00       	mov    $0x6054b0,%esi
  400f25:	55                   	push   %rbp
  400f26:	48 81 ee b0 54 60 00 	sub    $0x6054b0,%rsi
  400f2d:	48 c1 fe 03          	sar    $0x3,%rsi
  400f31:	48 89 e5             	mov    %rsp,%rbp
  400f34:	48 89 f0             	mov    %rsi,%rax
  400f37:	48 c1 e8 3f          	shr    $0x3f,%rax
  400f3b:	48 01 c6             	add    %rax,%rsi
  400f3e:	48 d1 fe             	sar    %rsi
  400f41:	74 15                	je     400f58 <register_tm_clones+0x38>
  400f43:	b8 00 00 00 00       	mov    $0x0,%eax
  400f48:	48 85 c0             	test   %rax,%rax
  400f4b:	74 0b                	je     400f58 <register_tm_clones+0x38>
  400f4d:	5d                   	pop    %rbp
  400f4e:	bf b0 54 60 00       	mov    $0x6054b0,%edi
  400f53:	ff e0                	jmp    *%rax
  400f55:	0f 1f 00             	nopl   (%rax)
  400f58:	5d                   	pop    %rbp
  400f59:	c3                   	ret    
  400f5a:	66 0f 1f 44 00 00    	nopw   0x0(%rax,%rax,1)

0000000000400f60 <__do_global_dtors_aux>:
  400f60:	80 3d 81 45 20 00 00 	cmpb   $0x0,0x204581(%rip)        # 6054e8 <completed.7585>
  400f67:	75 11                	jne    400f7a <__do_global_dtors_aux+0x1a>
  400f69:	55                   	push   %rbp
  400f6a:	48 89 e5             	mov    %rsp,%rbp
  400f6d:	e8 6e ff ff ff       	call   400ee0 <deregister_tm_clones>
  400f72:	5d                   	pop    %rbp
  400f73:	c6 05 6e 45 20 00 01 	movb   $0x1,0x20456e(%rip)        # 6054e8 <completed.7585>
  400f7a:	f3 c3                	repz ret 
  400f7c:	0f 1f 40 00          	nopl   0x0(%rax)

0000000000400f80 <frame_dummy>:
  400f80:	bf 20 4e 60 00       	mov    $0x604e20,%edi
  400f85:	48 83 3f 00          	cmpq   $0x0,(%rdi)
  400f89:	75 05                	jne    400f90 <frame_dummy+0x10>
  400f8b:	eb 93                	jmp    400f20 <register_tm_clones>
  400f8d:	0f 1f 00             	nopl   (%rax)
  400f90:	b8 00 00 00 00       	mov    $0x0,%eax
  400f95:	48 85 c0             	test   %rax,%rax
  400f98:	74 f1                	je     400f8b <frame_dummy+0xb>
  400f9a:	55                   	push   %rbp
  400f9b:	48 89 e5             	mov    %rsp,%rbp
  400f9e:	ff d0                	call   *%rax
  400fa0:	5d                   	pop    %rbp
  400fa1:	e9 7a ff ff ff       	jmp    400f20 <register_tm_clones>

0000000000400fa6 <usage>:
  400fa6:	48 83 ec 08          	sub    $0x8,%rsp
  400faa:	48 89 fa             	mov    %rdi,%rdx
  400fad:	83 3d 74 45 20 00 00 	cmpl   $0x0,0x204574(%rip)        # 605528 <is_checker>
  400fb4:	74 3e                	je     400ff4 <usage+0x4e>
  400fb6:	be 08 30 40 00       	mov    $0x403008,%esi
  400fbb:	bf 01 00 00 00       	mov    $0x1,%edi
  400fc0:	b8 00 00 00 00       	mov    $0x0,%eax
  400fc5:	e8 36 fe ff ff       	call   400e00 <__printf_chk@plt>
  400fca:	bf 40 30 40 00       	mov    $0x403040,%edi
  400fcf:	e8 fc fc ff ff       	call   400cd0 <puts@plt>
  400fd4:	bf b8 31 40 00       	mov    $0x4031b8,%edi
  400fd9:	e8 f2 fc ff ff       	call   400cd0 <puts@plt>
  400fde:	bf 68 30 40 00       	mov    $0x403068,%edi
  400fe3:	e8 e8 fc ff ff       	call   400cd0 <puts@plt>
  400fe8:	bf d2 31 40 00       	mov    $0x4031d2,%edi
  400fed:	e8 de fc ff ff       	call   400cd0 <puts@plt>
  400ff2:	eb 32                	jmp    401026 <usage+0x80>
  400ff4:	be ee 31 40 00       	mov    $0x4031ee,%esi
  400ff9:	bf 01 00 00 00       	mov    $0x1,%edi
  400ffe:	b8 00 00 00 00       	mov    $0x0,%eax
  401003:	e8 f8 fd ff ff       	call   400e00 <__printf_chk@plt>
  401008:	bf 90 30 40 00       	mov    $0x403090,%edi
  40100d:	e8 be fc ff ff       	call   400cd0 <puts@plt>
  401012:	bf b8 30 40 00       	mov    $0x4030b8,%edi
  401017:	e8 b4 fc ff ff       	call   400cd0 <puts@plt>
  40101c:	bf 0c 32 40 00       	mov    $0x40320c,%edi
  401021:	e8 aa fc ff ff       	call   400cd0 <puts@plt>
  401026:	bf 00 00 00 00       	mov    $0x0,%edi
  40102b:	e8 20 fe ff ff       	call   400e50 <exit@plt>

0000000000401030 <initialize_target>:
  401030:	55                   	push   %rbp
  401031:	53                   	push   %rbx
  401032:	48 81 ec 18 21 00 00 	sub    $0x2118,%rsp
  401039:	89 f5                	mov    %esi,%ebp
  40103b:	64 48 8b 04 25 28 00 	mov    %fs:0x28,%rax
  401042:	00 00 
  401044:	48 89 84 24 08 21 00 	mov    %rax,0x2108(%rsp)
  40104b:	00 
  40104c:	31 c0                	xor    %eax,%eax
  40104e:	89 3d c4 44 20 00    	mov    %edi,0x2044c4(%rip)        # 605518 <check_level>
  401054:	8b 3d 0e 41 20 00    	mov    0x20410e(%rip),%edi        # 605168 <target_id>
  40105a:	e8 f3 1e 00 00       	call   402f52 <gencookie>
  40105f:	89 05 bf 44 20 00    	mov    %eax,0x2044bf(%rip)        # 605524 <cookie>
  401065:	89 c7                	mov    %eax,%edi
  401067:	e8 e6 1e 00 00       	call   402f52 <gencookie>
  40106c:	89 05 ae 44 20 00    	mov    %eax,0x2044ae(%rip)        # 605520 <authkey>
  401072:	8b 05 f0 40 20 00    	mov    0x2040f0(%rip),%eax        # 605168 <target_id>
  401078:	8d 78 01             	lea    0x1(%rax),%edi
  40107b:	e8 20 fc ff ff       	call   400ca0 <srandom@plt>
  401080:	e8 3b fd ff ff       	call   400dc0 <random@plt>
  401085:	89 c7                	mov    %eax,%edi
  401087:	e8 03 03 00 00       	call   40138f <scramble>
  40108c:	89 c3                	mov    %eax,%ebx
  40108e:	85 ed                	test   %ebp,%ebp
  401090:	74 18                	je     4010aa <initialize_target+0x7a>
  401092:	bf 00 00 00 00       	mov    $0x0,%edi
  401097:	e8 14 fd ff ff       	call   400db0 <time@plt>
  40109c:	89 c7                	mov    %eax,%edi
  40109e:	e8 fd fb ff ff       	call   400ca0 <srandom@plt>
  4010a3:	e8 18 fd ff ff       	call   400dc0 <random@plt>
  4010a8:	eb 05                	jmp    4010af <initialize_target+0x7f>
  4010aa:	b8 00 00 00 00       	mov    $0x0,%eax
  4010af:	01 c3                	add    %eax,%ebx
  4010b1:	0f b7 db             	movzwl %bx,%ebx
  4010b4:	8d 04 dd 00 01 00 00 	lea    0x100(,%rbx,8),%eax
  4010bb:	89 c0                	mov    %eax,%eax
  4010bd:	48 89 05 dc 43 20 00 	mov    %rax,0x2043dc(%rip)        # 6054a0 <buf_offset>
  4010c4:	c6 05 7d 50 20 00 72 	movb   $0x72,0x20507d(%rip)        # 606148 <target_prefix>
  4010cb:	83 3d d6 43 20 00 00 	cmpl   $0x0,0x2043d6(%rip)        # 6054a8 <notify>
  4010d2:	0f 84 bb 00 00 00    	je     401193 <initialize_target+0x163>
  4010d8:	83 3d 49 44 20 00 00 	cmpl   $0x0,0x204449(%rip)        # 605528 <is_checker>
  4010df:	0f 85 ae 00 00 00    	jne    401193 <initialize_target+0x163>
  4010e5:	be 00 01 00 00       	mov    $0x100,%esi
  4010ea:	48 89 e7             	mov    %rsp,%rdi
  4010ed:	e8 4e fd ff ff       	call   400e40 <gethostname@plt>
  4010f2:	85 c0                	test   %eax,%eax
  4010f4:	74 25                	je     40111b <initialize_target+0xeb>
  4010f6:	bf e8 30 40 00       	mov    $0x4030e8,%edi
  4010fb:	e8 d0 fb ff ff       	call   400cd0 <puts@plt>
  401100:	bf 08 00 00 00       	mov    $0x8,%edi
  401105:	e8 46 fd ff ff       	call   400e50 <exit@plt>
  40110a:	48 89 e6             	mov    %rsp,%rsi
  40110d:	e8 6e fb ff ff       	call   400c80 <strcasecmp@plt>
  401112:	85 c0                	test   %eax,%eax
  401114:	74 21                	je     401137 <initialize_target+0x107>
  401116:	83 c3 01             	add    $0x1,%ebx
  401119:	eb 05                	jmp    401120 <initialize_target+0xf0>
  40111b:	bb 00 00 00 00       	mov    $0x0,%ebx
  401120:	48 63 c3             	movslq %ebx,%rax
  401123:	48 8b 3c c5 80 51 60 	mov    0x605180(,%rax,8),%rdi
  40112a:	00 
  40112b:	48 85 ff             	test   %rdi,%rdi
  40112e:	75 da                	jne    40110a <initialize_target+0xda>
  401130:	b8 00 00 00 00       	mov    $0x0,%eax
  401135:	eb 05                	jmp    40113c <initialize_target+0x10c>
  401137:	b8 01 00 00 00       	mov    $0x1,%eax
  40113c:	85 c0                	test   %eax,%eax
  40113e:	75 1c                	jne    40115c <initialize_target+0x12c>
  401140:	48 89 e2             	mov    %rsp,%rdx
  401143:	be 20 31 40 00       	mov    $0x403120,%esi
  401148:	bf 01 00 00 00       	mov    $0x1,%edi
  40114d:	e8 ae fc ff ff       	call   400e00 <__printf_chk@plt>
  401152:	bf 08 00 00 00       	mov    $0x8,%edi
  401157:	e8 f4 fc ff ff       	call   400e50 <exit@plt>
  40115c:	48 8d bc 24 00 01 00 	lea    0x100(%rsp),%rdi
  401163:	00 
  401164:	e8 53 1b 00 00       	call   402cbc <init_driver>
  401169:	85 c0                	test   %eax,%eax
  40116b:	79 26                	jns    401193 <initialize_target+0x163>
  40116d:	48 8d 94 24 00 01 00 	lea    0x100(%rsp),%rdx
  401174:	00 
  401175:	be 60 31 40 00       	mov    $0x403160,%esi
  40117a:	bf 01 00 00 00       	mov    $0x1,%edi
  40117f:	b8 00 00 00 00       	mov    $0x0,%eax
  401184:	e8 77 fc ff ff       	call   400e00 <__printf_chk@plt>
  401189:	bf 08 00 00 00       	mov    $0x8,%edi
  40118e:	e8 bd fc ff ff       	call   400e50 <exit@plt>
  401193:	48 8b 84 24 08 21 00 	mov    0x2108(%rsp),%rax
  40119a:	00 
  40119b:	64 48 33 04 25 28 00 	xor    %fs:0x28,%rax
  4011a2:	00 00 
  4011a4:	74 05                	je     4011ab <initialize_target+0x17b>
  4011a6:	e8 45 fb ff ff       	call   400cf0 <__stack_chk_fail@plt>
  4011ab:	48 81 c4 18 21 00 00 	add    $0x2118,%rsp
  4011b2:	5b                   	pop    %rbx
  4011b3:	5d                   	pop    %rbp
  4011b4:	c3                   	ret    

00000000004011b5 <main>:
  4011b5:	41 56                	push   %r14
  4011b7:	41 55                	push   %r13
  4011b9:	41 54                	push   %r12
  4011bb:	55                   	push   %rbp
  4011bc:	53                   	push   %rbx
  4011bd:	41 89 fc             	mov    %edi,%r12d
  4011c0:	48 89 f3             	mov    %rsi,%rbx
  4011c3:	be f7 1f 40 00       	mov    $0x401ff7,%esi
  4011c8:	bf 0b 00 00 00       	mov    $0xb,%edi
  4011cd:	e8 8e fb ff ff       	call   400d60 <signal@plt>
  4011d2:	be a9 1f 40 00       	mov    $0x401fa9,%esi
  4011d7:	bf 07 00 00 00       	mov    $0x7,%edi
  4011dc:	e8 7f fb ff ff       	call   400d60 <signal@plt>
  4011e1:	be 45 20 40 00       	mov    $0x402045,%esi
  4011e6:	bf 04 00 00 00       	mov    $0x4,%edi
  4011eb:	e8 70 fb ff ff       	call   400d60 <signal@plt>
  4011f0:	83 3d 31 43 20 00 00 	cmpl   $0x0,0x204331(%rip)        # 605528 <is_checker>
  4011f7:	74 20                	je     401219 <main+0x64>
  4011f9:	be 93 20 40 00       	mov    $0x402093,%esi
  4011fe:	bf 0e 00 00 00       	mov    $0xe,%edi
  401203:	e8 58 fb ff ff       	call   400d60 <signal@plt>
  401208:	bf 05 00 00 00       	mov    $0x5,%edi
  40120d:	e8 0e fb ff ff       	call   400d20 <alarm@plt>
  401212:	bd 2a 32 40 00       	mov    $0x40322a,%ebp
  401217:	eb 05                	jmp    40121e <main+0x69>
  401219:	bd 25 32 40 00       	mov    $0x403225,%ebp
  40121e:	48 8b 05 9b 42 20 00 	mov    0x20429b(%rip),%rax        # 6054c0 <stdin@GLIBC_2.2.5>
  401225:	48 89 05 e4 42 20 00 	mov    %rax,0x2042e4(%rip)        # 605510 <infile>
  40122c:	41 bd 00 00 00 00    	mov    $0x0,%r13d
  401232:	41 be 00 00 00 00    	mov    $0x0,%r14d
  401238:	e9 c6 00 00 00       	jmp    401303 <main+0x14e>
  40123d:	83 e8 61             	sub    $0x61,%eax
  401240:	3c 10                	cmp    $0x10,%al
  401242:	0f 87 9c 00 00 00    	ja     4012e4 <main+0x12f>
  401248:	0f b6 c0             	movzbl %al,%eax
  40124b:	ff 24 c5 70 32 40 00 	jmp    *0x403270(,%rax,8)
  401252:	48 8b 3b             	mov    (%rbx),%rdi
  401255:	e8 4c fd ff ff       	call   400fa6 <usage>
  40125a:	be 3b 34 40 00       	mov    $0x40343b,%esi
  40125f:	48 8b 3d 62 42 20 00 	mov    0x204262(%rip),%rdi        # 6054c8 <optarg@GLIBC_2.2.5>
  401266:	e8 a5 fb ff ff       	call   400e10 <fopen@plt>
  40126b:	48 89 05 9e 42 20 00 	mov    %rax,0x20429e(%rip)        # 605510 <infile>
  401272:	48 85 c0             	test   %rax,%rax
  401275:	0f 85 88 00 00 00    	jne    401303 <main+0x14e>
  40127b:	48 8b 0d 46 42 20 00 	mov    0x204246(%rip),%rcx        # 6054c8 <optarg@GLIBC_2.2.5>
  401282:	ba 32 32 40 00       	mov    $0x403232,%edx
  401287:	be 01 00 00 00       	mov    $0x1,%esi
  40128c:	48 8b 3d 4d 42 20 00 	mov    0x20424d(%rip),%rdi        # 6054e0 <stderr@GLIBC_2.2.5>
  401293:	e8 d8 fb ff ff       	call   400e70 <__fprintf_chk@plt>
  401298:	b8 01 00 00 00       	mov    $0x1,%eax
  40129d:	e9 e4 00 00 00       	jmp    401386 <main+0x1d1>
  4012a2:	ba 10 00 00 00       	mov    $0x10,%edx
  4012a7:	be 00 00 00 00       	mov    $0x0,%esi
  4012ac:	48 8b 3d 15 42 20 00 	mov    0x204215(%rip),%rdi        # 6054c8 <optarg@GLIBC_2.2.5>
  4012b3:	e8 78 fb ff ff       	call   400e30 <strtoul@plt>
  4012b8:	41 89 c6             	mov    %eax,%r14d
  4012bb:	eb 46                	jmp    401303 <main+0x14e>
  4012bd:	ba 0a 00 00 00       	mov    $0xa,%edx
  4012c2:	be 00 00 00 00       	mov    $0x0,%esi
  4012c7:	48 8b 3d fa 41 20 00 	mov    0x2041fa(%rip),%rdi        # 6054c8 <optarg@GLIBC_2.2.5>
  4012ce:	e8 bd fa ff ff       	call   400d90 <strtol@plt>
  4012d3:	41 89 c5             	mov    %eax,%r13d
  4012d6:	eb 2b                	jmp    401303 <main+0x14e>
  4012d8:	c7 05 c6 41 20 00 00 	movl   $0x0,0x2041c6(%rip)        # 6054a8 <notify>
  4012df:	00 00 00 
  4012e2:	eb 1f                	jmp    401303 <main+0x14e>
  4012e4:	0f be d2             	movsbl %dl,%edx
  4012e7:	be 4f 32 40 00       	mov    $0x40324f,%esi
  4012ec:	bf 01 00 00 00       	mov    $0x1,%edi
  4012f1:	b8 00 00 00 00       	mov    $0x0,%eax
  4012f6:	e8 05 fb ff ff       	call   400e00 <__printf_chk@plt>
  4012fb:	48 8b 3b             	mov    (%rbx),%rdi
  4012fe:	e8 a3 fc ff ff       	call   400fa6 <usage>
  401303:	48 89 ea             	mov    %rbp,%rdx
  401306:	48 89 de             	mov    %rbx,%rsi
  401309:	44 89 e7             	mov    %r12d,%edi
  40130c:	e8 0f fb ff ff       	call   400e20 <getopt@plt>
  401311:	89 c2                	mov    %eax,%edx
  401313:	3c ff                	cmp    $0xff,%al
  401315:	0f 85 22 ff ff ff    	jne    40123d <main+0x88>
  40131b:	be 01 00 00 00       	mov    $0x1,%esi
  401320:	44 89 ef             	mov    %r13d,%edi
  401323:	e8 08 fd ff ff       	call   401030 <initialize_target>
  401328:	83 3d f9 41 20 00 00 	cmpl   $0x0,0x2041f9(%rip)        # 605528 <is_checker>
  40132f:	74 2a                	je     40135b <main+0x1a6>
  401331:	44 3b 35 e8 41 20 00 	cmp    0x2041e8(%rip),%r14d        # 605520 <authkey>
  401338:	74 21                	je     40135b <main+0x1a6>
  40133a:	44 89 f2             	mov    %r14d,%edx
  40133d:	be 88 31 40 00       	mov    $0x403188,%esi
  401342:	bf 01 00 00 00       	mov    $0x1,%edi
  401347:	b8 00 00 00 00       	mov    $0x0,%eax
  40134c:	e8 af fa ff ff       	call   400e00 <__printf_chk@plt>
  401351:	b8 00 00 00 00       	mov    $0x0,%eax
  401356:	e8 d0 08 00 00       	call   401c2b <check_fail>
  40135b:	8b 15 c3 41 20 00    	mov    0x2041c3(%rip),%edx        # 605524 <cookie>
  401361:	be 62 32 40 00       	mov    $0x403262,%esi
  401366:	bf 01 00 00 00       	mov    $0x1,%edi
  40136b:	b8 00 00 00 00       	mov    $0x0,%eax
  401370:	e8 8b fa ff ff       	call   400e00 <__printf_chk@plt>
  401375:	48 8b 3d 24 41 20 00 	mov    0x204124(%rip),%rdi        # 6054a0 <buf_offset>
  40137c:	e8 65 0d 00 00       	call   4020e6 <launch>
  401381:	b8 00 00 00 00       	mov    $0x0,%eax
  401386:	5b                   	pop    %rbx
  401387:	5d                   	pop    %rbp
  401388:	41 5c                	pop    %r12
  40138a:	41 5d                	pop    %r13
  40138c:	41 5e                	pop    %r14
  40138e:	c3                   	ret    

000000000040138f <scramble>:
  40138f:	48 83 ec 38          	sub    $0x38,%rsp
  401393:	64 48 8b 04 25 28 00 	mov    %fs:0x28,%rax
  40139a:	00 00 
  40139c:	48 89 44 24 28       	mov    %rax,0x28(%rsp)
  4013a1:	31 c0                	xor    %eax,%eax
  4013a3:	eb 10                	jmp    4013b5 <scramble+0x26>
  4013a5:	69 d0 32 1d 00 00    	imul   $0x1d32,%eax,%edx
  4013ab:	01 fa                	add    %edi,%edx
  4013ad:	89 c1                	mov    %eax,%ecx
  4013af:	89 14 8c             	mov    %edx,(%rsp,%rcx,4)
  4013b2:	83 c0 01             	add    $0x1,%eax
  4013b5:	83 f8 09             	cmp    $0x9,%eax
  4013b8:	76 eb                	jbe    4013a5 <scramble+0x16>
  4013ba:	8b 04 24             	mov    (%rsp),%eax
  4013bd:	69 c0 d3 f1 00 00    	imul   $0xf1d3,%eax,%eax
  4013c3:	89 04 24             	mov    %eax,(%rsp)
  4013c6:	8b 44 24 10          	mov    0x10(%rsp),%eax
  4013ca:	69 c0 08 99 00 00    	imul   $0x9908,%eax,%eax
  4013d0:	89 44 24 10          	mov    %eax,0x10(%rsp)
  4013d4:	8b 04 24             	mov    (%rsp),%eax
  4013d7:	69 c0 e9 d5 00 00    	imul   $0xd5e9,%eax,%eax
  4013dd:	89 04 24             	mov    %eax,(%rsp)
  4013e0:	8b 04 24             	mov    (%rsp),%eax
  4013e3:	69 c0 4a 85 00 00    	imul   $0x854a,%eax,%eax
  4013e9:	89 04 24             	mov    %eax,(%rsp)
  4013ec:	8b 44 24 04          	mov    0x4(%rsp),%eax
  4013f0:	69 c0 62 26 00 00    	imul   $0x2662,%eax,%eax
  4013f6:	89 44 24 04          	mov    %eax,0x4(%rsp)
  4013fa:	8b 44 24 18          	mov    0x18(%rsp),%eax
  4013fe:	69 c0 6a f7 00 00    	imul   $0xf76a,%eax,%eax
  401404:	89 44 24 18          	mov    %eax,0x18(%rsp)
  401408:	8b 44 24 08          	mov    0x8(%rsp),%eax
  40140c:	69 c0 0e 80 00 00    	imul   $0x800e,%eax,%eax
  401412:	89 44 24 08          	mov    %eax,0x8(%rsp)
  401416:	8b 44 24 04          	mov    0x4(%rsp),%eax
  40141a:	69 c0 49 04 00 00    	imul   $0x449,%eax,%eax
  401420:	89 44 24 04          	mov    %eax,0x4(%rsp)
  401424:	8b 44 24 18          	mov    0x18(%rsp),%eax
  401428:	69 c0 1d 18 00 00    	imul   $0x181d,%eax,%eax
  40142e:	89 44 24 18          	mov    %eax,0x18(%rsp)
  401432:	8b 44 24 0c          	mov    0xc(%rsp),%eax
  401436:	69 c0 29 49 00 00    	imul   $0x4929,%eax,%eax
  40143c:	89 44 24 0c          	mov    %eax,0xc(%rsp)
  401440:	8b 44 24 1c          	mov    0x1c(%rsp),%eax
  401444:	69 c0 79 93 00 00    	imul   $0x9379,%eax,%eax
  40144a:	89 44 24 1c          	mov    %eax,0x1c(%rsp)
  40144e:	8b 44 24 14          	mov    0x14(%rsp),%eax
  401452:	69 c0 02 34 00 00    	imul   $0x3402,%eax,%eax
  401458:	89 44 24 14          	mov    %eax,0x14(%rsp)
  40145c:	8b 44 24 08          	mov    0x8(%rsp),%eax
  401460:	69 c0 3d 63 00 00    	imul   $0x633d,%eax,%eax
  401466:	89 44 24 08          	mov    %eax,0x8(%rsp)
  40146a:	8b 44 24 04          	mov    0x4(%rsp),%eax
  40146e:	69 c0 24 e3 00 00    	imul   $0xe324,%eax,%eax
  401474:	89 44 24 04          	mov    %eax,0x4(%rsp)
  401478:	8b 44 24 14          	mov    0x14(%rsp),%eax
  40147c:	69 c0 51 5d 00 00    	imul   $0x5d51,%eax,%eax
  401482:	89 44 24 14          	mov    %eax,0x14(%rsp)
  401486:	8b 44 24 10          	mov    0x10(%rsp),%eax
  40148a:	69 c0 39 ad 00 00    	imul   $0xad39,%eax,%eax
  401490:	89 44 24 10          	mov    %eax,0x10(%rsp)
  401494:	8b 44 24 14          	mov    0x14(%rsp),%eax
  401498:	69 c0 b9 0d 00 00    	imul   $0xdb9,%eax,%eax
  40149e:	89 44 24 14          	mov    %eax,0x14(%rsp)
  4014a2:	8b 44 24 14          	mov    0x14(%rsp),%eax
  4014a6:	69 c0 61 b9 00 00    	imul   $0xb961,%eax,%eax
  4014ac:	89 44 24 14          	mov    %eax,0x14(%rsp)
  4014b0:	8b 44 24 0c          	mov    0xc(%rsp),%eax
  4014b4:	69 c0 af 97 00 00    	imul   $0x97af,%eax,%eax
  4014ba:	89 44 24 0c          	mov    %eax,0xc(%rsp)
  4014be:	8b 44 24 04          	mov    0x4(%rsp),%eax
  4014c2:	69 c0 c7 fd 00 00    	imul   $0xfdc7,%eax,%eax
  4014c8:	89 44 24 04          	mov    %eax,0x4(%rsp)
  4014cc:	8b 44 24 24          	mov    0x24(%rsp),%eax
  4014d0:	69 c0 4c 94 00 00    	imul   $0x944c,%eax,%eax
  4014d6:	89 44 24 24          	mov    %eax,0x24(%rsp)
  4014da:	8b 44 24 0c          	mov    0xc(%rsp),%eax
  4014de:	69 c0 a2 a5 00 00    	imul   $0xa5a2,%eax,%eax
  4014e4:	89 44 24 0c          	mov    %eax,0xc(%rsp)
  4014e8:	8b 44 24 04          	mov    0x4(%rsp),%eax
  4014ec:	69 c0 a3 aa 00 00    	imul   $0xaaa3,%eax,%eax
  4014f2:	89 44 24 04          	mov    %eax,0x4(%rsp)
  4014f6:	8b 44 24 0c          	mov    0xc(%rsp),%eax
  4014fa:	89 c2                	mov    %eax,%edx
  4014fc:	c1 e2 08             	shl    $0x8,%edx
  4014ff:	8d 04 42             	lea    (%rdx,%rax,2),%eax
  401502:	89 44 24 0c          	mov    %eax,0xc(%rsp)
  401506:	8b 44 24 20          	mov    0x20(%rsp),%eax
  40150a:	69 c0 63 e3 00 00    	imul   $0xe363,%eax,%eax
  401510:	89 44 24 20          	mov    %eax,0x20(%rsp)
  401514:	8b 44 24 0c          	mov    0xc(%rsp),%eax
  401518:	69 c0 32 ba 00 00    	imul   $0xba32,%eax,%eax
  40151e:	89 44 24 0c          	mov    %eax,0xc(%rsp)
  401522:	8b 44 24 18          	mov    0x18(%rsp),%eax
  401526:	69 c0 b7 65 00 00    	imul   $0x65b7,%eax,%eax
  40152c:	89 44 24 18          	mov    %eax,0x18(%rsp)
  401530:	8b 44 24 08          	mov    0x8(%rsp),%eax
  401534:	69 c0 6c 24 00 00    	imul   $0x246c,%eax,%eax
  40153a:	89 44 24 08          	mov    %eax,0x8(%rsp)
  40153e:	8b 04 24             	mov    (%rsp),%eax
  401541:	69 c0 f6 6b 00 00    	imul   $0x6bf6,%eax,%eax
  401547:	89 04 24             	mov    %eax,(%rsp)
  40154a:	8b 04 24             	mov    (%rsp),%eax
  40154d:	69 c0 fb 58 00 00    	imul   $0x58fb,%eax,%eax
  401553:	89 04 24             	mov    %eax,(%rsp)
  401556:	8b 44 24 18          	mov    0x18(%rsp),%eax
  40155a:	69 c0 c2 d9 00 00    	imul   $0xd9c2,%eax,%eax
  401560:	89 44 24 18          	mov    %eax,0x18(%rsp)
  401564:	8b 44 24 14          	mov    0x14(%rsp),%eax
  401568:	69 c0 6c 18 00 00    	imul   $0x186c,%eax,%eax
  40156e:	89 44 24 14          	mov    %eax,0x14(%rsp)
  401572:	8b 44 24 24          	mov    0x24(%rsp),%eax
  401576:	69 c0 75 4c 00 00    	imul   $0x4c75,%eax,%eax
  40157c:	89 44 24 24          	mov    %eax,0x24(%rsp)
  401580:	8b 44 24 04          	mov    0x4(%rsp),%eax
  401584:	69 c0 1e cb 00 00    	imul   $0xcb1e,%eax,%eax
  40158a:	89 44 24 04          	mov    %eax,0x4(%rsp)
  40158e:	8b 44 24 1c          	mov    0x1c(%rsp),%eax
  401592:	69 c0 79 10 00 00    	imul   $0x1079,%eax,%eax
  401598:	89 44 24 1c          	mov    %eax,0x1c(%rsp)
  40159c:	8b 44 24 1c          	mov    0x1c(%rsp),%eax
  4015a0:	69 c0 36 a2 00 00    	imul   $0xa236,%eax,%eax
  4015a6:	89 44 24 1c          	mov    %eax,0x1c(%rsp)
  4015aa:	8b 44 24 08          	mov    0x8(%rsp),%eax
  4015ae:	69 c0 17 be 00 00    	imul   $0xbe17,%eax,%eax
  4015b4:	89 44 24 08          	mov    %eax,0x8(%rsp)
  4015b8:	8b 04 24             	mov    (%rsp),%eax
  4015bb:	69 c0 20 b9 00 00    	imul   $0xb920,%eax,%eax
  4015c1:	89 04 24             	mov    %eax,(%rsp)
  4015c4:	8b 44 24 24          	mov    0x24(%rsp),%eax
  4015c8:	69 c0 c4 f1 00 00    	imul   $0xf1c4,%eax,%eax
  4015ce:	89 44 24 24          	mov    %eax,0x24(%rsp)
  4015d2:	8b 44 24 14          	mov    0x14(%rsp),%eax
  4015d6:	69 c0 7b 2b 00 00    	imul   $0x2b7b,%eax,%eax
  4015dc:	89 44 24 14          	mov    %eax,0x14(%rsp)
  4015e0:	8b 44 24 10          	mov    0x10(%rsp),%eax
  4015e4:	69 c0 4f 04 00 00    	imul   $0x44f,%eax,%eax
  4015ea:	89 44 24 10          	mov    %eax,0x10(%rsp)
  4015ee:	8b 44 24 10          	mov    0x10(%rsp),%eax
  4015f2:	69 c0 04 4c 00 00    	imul   $0x4c04,%eax,%eax
  4015f8:	89 44 24 10          	mov    %eax,0x10(%rsp)
  4015fc:	8b 44 24 24          	mov    0x24(%rsp),%eax
  401600:	69 c0 e2 d3 00 00    	imul   $0xd3e2,%eax,%eax
  401606:	89 44 24 24          	mov    %eax,0x24(%rsp)
  40160a:	8b 44 24 0c          	mov    0xc(%rsp),%eax
  40160e:	69 c0 fa 32 00 00    	imul   $0x32fa,%eax,%eax
  401614:	89 44 24 0c          	mov    %eax,0xc(%rsp)
  401618:	8b 44 24 08          	mov    0x8(%rsp),%eax
  40161c:	69 c0 01 78 00 00    	imul   $0x7801,%eax,%eax
  401622:	89 44 24 08          	mov    %eax,0x8(%rsp)
  401626:	8b 44 24 24          	mov    0x24(%rsp),%eax
  40162a:	69 c0 21 09 00 00    	imul   $0x921,%eax,%eax
  401630:	89 44 24 24          	mov    %eax,0x24(%rsp)
  401634:	8b 44 24 04          	mov    0x4(%rsp),%eax
  401638:	69 c0 2a 92 00 00    	imul   $0x922a,%eax,%eax
  40163e:	89 44 24 04          	mov    %eax,0x4(%rsp)
  401642:	8b 44 24 08          	mov    0x8(%rsp),%eax
  401646:	69 c0 3f 39 00 00    	imul   $0x393f,%eax,%eax
  40164c:	89 44 24 08          	mov    %eax,0x8(%rsp)
  401650:	8b 44 24 1c          	mov    0x1c(%rsp),%eax
  401654:	69 c0 5b f3 00 00    	imul   $0xf35b,%eax,%eax
  40165a:	89 44 24 1c          	mov    %eax,0x1c(%rsp)
  40165e:	8b 44 24 18          	mov    0x18(%rsp),%eax
  401662:	69 c0 c5 c2 00 00    	imul   $0xc2c5,%eax,%eax
  401668:	89 44 24 18          	mov    %eax,0x18(%rsp)
  40166c:	8b 44 24 14          	mov    0x14(%rsp),%eax
  401670:	69 c0 43 cd 00 00    	imul   $0xcd43,%eax,%eax
  401676:	89 44 24 14          	mov    %eax,0x14(%rsp)
  40167a:	8b 44 24 10          	mov    0x10(%rsp),%eax
  40167e:	69 c0 99 a8 00 00    	imul   $0xa899,%eax,%eax
  401684:	89 44 24 10          	mov    %eax,0x10(%rsp)
  401688:	8b 44 24 20          	mov    0x20(%rsp),%eax
  40168c:	69 c0 d4 ac 00 00    	imul   $0xacd4,%eax,%eax
  401692:	89 44 24 20          	mov    %eax,0x20(%rsp)
  401696:	8b 44 24 18          	mov    0x18(%rsp),%eax
  40169a:	69 c0 14 f4 00 00    	imul   $0xf414,%eax,%eax
  4016a0:	89 44 24 18          	mov    %eax,0x18(%rsp)
  4016a4:	8b 44 24 10          	mov    0x10(%rsp),%eax
  4016a8:	69 c0 dd 1b 00 00    	imul   $0x1bdd,%eax,%eax
  4016ae:	89 44 24 10          	mov    %eax,0x10(%rsp)
  4016b2:	8b 44 24 20          	mov    0x20(%rsp),%eax
  4016b6:	69 c0 bf 73 00 00    	imul   $0x73bf,%eax,%eax
  4016bc:	89 44 24 20          	mov    %eax,0x20(%rsp)
  4016c0:	8b 44 24 08          	mov    0x8(%rsp),%eax
  4016c4:	69 c0 3e 05 00 00    	imul   $0x53e,%eax,%eax
  4016ca:	89 44 24 08          	mov    %eax,0x8(%rsp)
  4016ce:	8b 04 24             	mov    (%rsp),%eax
  4016d1:	69 c0 32 8a 00 00    	imul   $0x8a32,%eax,%eax
  4016d7:	89 04 24             	mov    %eax,(%rsp)
  4016da:	8b 04 24             	mov    (%rsp),%eax
  4016dd:	69 c0 35 30 00 00    	imul   $0x3035,%eax,%eax
  4016e3:	89 04 24             	mov    %eax,(%rsp)
  4016e6:	8b 44 24 10          	mov    0x10(%rsp),%eax
  4016ea:	69 c0 f9 18 00 00    	imul   $0x18f9,%eax,%eax
  4016f0:	89 44 24 10          	mov    %eax,0x10(%rsp)
  4016f4:	8b 44 24 20          	mov    0x20(%rsp),%eax
  4016f8:	69 c0 22 49 00 00    	imul   $0x4922,%eax,%eax
  4016fe:	89 44 24 20          	mov    %eax,0x20(%rsp)
  401702:	8b 44 24 0c          	mov    0xc(%rsp),%eax
  401706:	69 c0 fa f9 00 00    	imul   $0xf9fa,%eax,%eax
  40170c:	89 44 24 0c          	mov    %eax,0xc(%rsp)
  401710:	8b 44 24 24          	mov    0x24(%rsp),%eax
  401714:	69 c0 a8 43 00 00    	imul   $0x43a8,%eax,%eax
  40171a:	89 44 24 24          	mov    %eax,0x24(%rsp)
  40171e:	8b 44 24 14          	mov    0x14(%rsp),%eax
  401722:	69 c0 ed b9 00 00    	imul   $0xb9ed,%eax,%eax
  401728:	89 44 24 14          	mov    %eax,0x14(%rsp)
  40172c:	8b 04 24             	mov    (%rsp),%eax
  40172f:	69 c0 96 37 00 00    	imul   $0x3796,%eax,%eax
  401735:	89 04 24             	mov    %eax,(%rsp)
  401738:	8b 44 24 14          	mov    0x14(%rsp),%eax
  40173c:	69 c0 d7 3a 00 00    	imul   $0x3ad7,%eax,%eax
  401742:	89 44 24 14          	mov    %eax,0x14(%rsp)
  401746:	8b 44 24 18          	mov    0x18(%rsp),%eax
  40174a:	69 c0 ad e1 00 00    	imul   $0xe1ad,%eax,%eax
  401750:	89 44 24 18          	mov    %eax,0x18(%rsp)
  401754:	8b 44 24 1c          	mov    0x1c(%rsp),%eax
  401758:	69 c0 33 90 00 00    	imul   $0x9033,%eax,%eax
  40175e:	89 44 24 1c          	mov    %eax,0x1c(%rsp)
  401762:	8b 44 24 20          	mov    0x20(%rsp),%eax
  401766:	69 c0 2a 45 00 00    	imul   $0x452a,%eax,%eax
  40176c:	89 44 24 20          	mov    %eax,0x20(%rsp)
  401770:	8b 44 24 14          	mov    0x14(%rsp),%eax
  401774:	69 c0 19 2d 00 00    	imul   $0x2d19,%eax,%eax
  40177a:	89 44 24 14          	mov    %eax,0x14(%rsp)
  40177e:	8b 44 24 24          	mov    0x24(%rsp),%eax
  401782:	69 c0 d8 a3 00 00    	imul   $0xa3d8,%eax,%eax
  401788:	89 44 24 24          	mov    %eax,0x24(%rsp)
  40178c:	8b 44 24 08          	mov    0x8(%rsp),%eax
  401790:	69 c0 33 81 00 00    	imul   $0x8133,%eax,%eax
  401796:	89 44 24 08          	mov    %eax,0x8(%rsp)
  40179a:	8b 44 24 24          	mov    0x24(%rsp),%eax
  40179e:	69 c0 9d 60 00 00    	imul   $0x609d,%eax,%eax
  4017a4:	89 44 24 24          	mov    %eax,0x24(%rsp)
  4017a8:	8b 44 24 18          	mov    0x18(%rsp),%eax
  4017ac:	69 c0 36 82 00 00    	imul   $0x8236,%eax,%eax
  4017b2:	89 44 24 18          	mov    %eax,0x18(%rsp)
  4017b6:	8b 44 24 20          	mov    0x20(%rsp),%eax
  4017ba:	69 c0 92 c8 00 00    	imul   $0xc892,%eax,%eax
  4017c0:	89 44 24 20          	mov    %eax,0x20(%rsp)
  4017c4:	8b 44 24 10          	mov    0x10(%rsp),%eax
  4017c8:	69 c0 08 39 00 00    	imul   $0x3908,%eax,%eax
  4017ce:	89 44 24 10          	mov    %eax,0x10(%rsp)
  4017d2:	8b 44 24 10          	mov    0x10(%rsp),%eax
  4017d6:	69 c0 4a bd 00 00    	imul   $0xbd4a,%eax,%eax
  4017dc:	89 44 24 10          	mov    %eax,0x10(%rsp)
  4017e0:	8b 04 24             	mov    (%rsp),%eax
  4017e3:	69 c0 01 ed 00 00    	imul   $0xed01,%eax,%eax
  4017e9:	89 04 24             	mov    %eax,(%rsp)
  4017ec:	8b 44 24 18          	mov    0x18(%rsp),%eax
  4017f0:	69 c0 3b 66 00 00    	imul   $0x663b,%eax,%eax
  4017f6:	89 44 24 18          	mov    %eax,0x18(%rsp)
  4017fa:	8b 44 24 10          	mov    0x10(%rsp),%eax
  4017fe:	69 c0 f5 37 00 00    	imul   $0x37f5,%eax,%eax
  401804:	89 44 24 10          	mov    %eax,0x10(%rsp)
  401808:	8b 44 24 18          	mov    0x18(%rsp),%eax
  40180c:	69 c0 a0 23 00 00    	imul   $0x23a0,%eax,%eax
  401812:	89 44 24 18          	mov    %eax,0x18(%rsp)
  401816:	8b 44 24 10          	mov    0x10(%rsp),%eax
  40181a:	69 c0 ab a2 00 00    	imul   $0xa2ab,%eax,%eax
  401820:	89 44 24 10          	mov    %eax,0x10(%rsp)
  401824:	8b 44 24 0c          	mov    0xc(%rsp),%eax
  401828:	69 c0 3d 56 00 00    	imul   $0x563d,%eax,%eax
  40182e:	89 44 24 0c          	mov    %eax,0xc(%rsp)
  401832:	8b 44 24 24          	mov    0x24(%rsp),%eax
  401836:	69 c0 cf 93 00 00    	imul   $0x93cf,%eax,%eax
  40183c:	89 44 24 24          	mov    %eax,0x24(%rsp)
  401840:	8b 44 24 1c          	mov    0x1c(%rsp),%eax
  401844:	69 c0 27 b7 00 00    	imul   $0xb727,%eax,%eax
  40184a:	89 44 24 1c          	mov    %eax,0x1c(%rsp)
  40184e:	8b 44 24 1c          	mov    0x1c(%rsp),%eax
  401852:	69 c0 6f fc 00 00    	imul   $0xfc6f,%eax,%eax
  401858:	89 44 24 1c          	mov    %eax,0x1c(%rsp)
  40185c:	ba 00 00 00 00       	mov    $0x0,%edx
  401861:	b8 00 00 00 00       	mov    $0x0,%eax
  401866:	eb 0a                	jmp    401872 <scramble+0x4e3>
  401868:	89 d1                	mov    %edx,%ecx
  40186a:	8b 0c 8c             	mov    (%rsp,%rcx,4),%ecx
  40186d:	01 c8                	add    %ecx,%eax
  40186f:	83 c2 01             	add    $0x1,%edx
  401872:	83 fa 09             	cmp    $0x9,%edx
  401875:	76 f1                	jbe    401868 <scramble+0x4d9>
  401877:	48 8b 74 24 28       	mov    0x28(%rsp),%rsi
  40187c:	64 48 33 34 25 28 00 	xor    %fs:0x28,%rsi
  401883:	00 00 
  401885:	74 05                	je     40188c <scramble+0x4fd>
  401887:	e8 64 f4 ff ff       	call   400cf0 <__stack_chk_fail@plt>
  40188c:	48 83 c4 38          	add    $0x38,%rsp
  401890:	c3                   	ret    

0000000000401891 <getbuf>:
  401891:	48 83 ec 28          	sub    $0x28,%rsp
  401895:	48 89 e7             	mov    %rsp,%rdi
  401898:	e8 c3 03 00 00       	call   401c60 <Gets>
  40189d:	b8 01 00 00 00       	mov    $0x1,%eax
  4018a2:	48 83 c4 28          	add    $0x28,%rsp
  4018a6:	c3                   	ret    

00000000004018a7 <touch1>:
  4018a7:	48 83 ec 08          	sub    $0x8,%rsp
  4018ab:	c7 05 67 3c 20 00 01 	movl   $0x1,0x203c67(%rip)        # 60551c <vlevel>
  4018b2:	00 00 00 
  4018b5:	bf 4e 34 40 00       	mov    $0x40344e,%edi
  4018ba:	e8 11 f4 ff ff       	call   400cd0 <puts@plt>
  4018bf:	bf 01 00 00 00       	mov    $0x1,%edi
  4018c4:	e8 dc 05 00 00       	call   401ea5 <validate>
  4018c9:	bf 00 00 00 00       	mov    $0x0,%edi
  4018ce:	e8 7d f5 ff ff       	call   400e50 <exit@plt>

00000000004018d3 <touch2>:
  4018d3:	48 83 ec 08          	sub    $0x8,%rsp
  4018d7:	89 fa                	mov    %edi,%edx
  4018d9:	c7 05 39 3c 20 00 02 	movl   $0x2,0x203c39(%rip)        # 60551c <vlevel>
  4018e0:	00 00 00 
  4018e3:	39 3d 3b 3c 20 00    	cmp    %edi,0x203c3b(%rip)        # 605524 <cookie>
  4018e9:	75 20                	jne    40190b <touch2+0x38>
  4018eb:	be 70 34 40 00       	mov    $0x403470,%esi
  4018f0:	bf 01 00 00 00       	mov    $0x1,%edi
  4018f5:	b8 00 00 00 00       	mov    $0x0,%eax
  4018fa:	e8 01 f5 ff ff       	call   400e00 <__printf_chk@plt>
  4018ff:	bf 02 00 00 00       	mov    $0x2,%edi
  401904:	e8 9c 05 00 00       	call   401ea5 <validate>
  401909:	eb 1e                	jmp    401929 <touch2+0x56>
  40190b:	be 98 34 40 00       	mov    $0x403498,%esi
  401910:	bf 01 00 00 00       	mov    $0x1,%edi
  401915:	b8 00 00 00 00       	mov    $0x0,%eax
  40191a:	e8 e1 f4 ff ff       	call   400e00 <__printf_chk@plt>
  40191f:	bf 02 00 00 00       	mov    $0x2,%edi
  401924:	e8 58 06 00 00       	call   401f81 <fail>
  401929:	bf 00 00 00 00       	mov    $0x0,%edi
  40192e:	e8 1d f5 ff ff       	call   400e50 <exit@plt>

0000000000401933 <hexmatch>:
  401933:	55                   	push   %rbp
  401934:	53                   	push   %rbx
  401935:	48 81 ec 88 00 00 00 	sub    $0x88,%rsp
  40193c:	89 fb                	mov    %edi,%ebx
  40193e:	48 89 f5             	mov    %rsi,%rbp
  401941:	64 48 8b 04 25 28 00 	mov    %fs:0x28,%rax
  401948:	00 00 
  40194a:	48 89 44 24 78       	mov    %rax,0x78(%rsp)
  40194f:	31 c0                	xor    %eax,%eax
  401951:	e8 6a f4 ff ff       	call   400dc0 <random@plt>
  401956:	48 89 c1             	mov    %rax,%rcx
  401959:	48 ba 0b d7 a3 70 3d 	movabs $0xa3d70a3d70a3d70b,%rdx
  401960:	0a d7 a3 
  401963:	48 f7 ea             	imul   %rdx
  401966:	48 01 ca             	add    %rcx,%rdx
  401969:	48 c1 fa 06          	sar    $0x6,%rdx
  40196d:	48 89 c8             	mov    %rcx,%rax
  401970:	48 c1 f8 3f          	sar    $0x3f,%rax
  401974:	48 29 c2             	sub    %rax,%rdx
  401977:	48 8d 04 92          	lea    (%rdx,%rdx,4),%rax
  40197b:	48 8d 14 80          	lea    (%rax,%rax,4),%rdx
  40197f:	48 8d 04 95 00 00 00 	lea    0x0(,%rdx,4),%rax
  401986:	00 
  401987:	48 89 ca             	mov    %rcx,%rdx
  40198a:	48 29 c2             	sub    %rax,%rdx
  40198d:	48 8d 34 14          	lea    (%rsp,%rdx,1),%rsi
  401991:	c6 46 08 00          	movb   $0x0,0x8(%rsi)
  401995:	ba 07 00 00 00       	mov    $0x7,%edx
  40199a:	eb 31                	jmp    4019cd <hexmatch+0x9a>
  40199c:	8d 0c 95 00 00 00 00 	lea    0x0(,%rdx,4),%ecx
  4019a3:	89 d8                	mov    %ebx,%eax
  4019a5:	d3 e8                	shr    %cl,%eax
  4019a7:	83 e0 0f             	and    $0xf,%eax
  4019aa:	3c 09                	cmp    $0x9,%al
  4019ac:	77 0f                	ja     4019bd <hexmatch+0x8a>
  4019ae:	b9 07 00 00 00       	mov    $0x7,%ecx
  4019b3:	29 d1                	sub    %edx,%ecx
  4019b5:	83 c0 30             	add    $0x30,%eax
  4019b8:	88 04 0e             	mov    %al,(%rsi,%rcx,1)
  4019bb:	eb 0d                	jmp    4019ca <hexmatch+0x97>
  4019bd:	b9 07 00 00 00       	mov    $0x7,%ecx
  4019c2:	29 d1                	sub    %edx,%ecx
  4019c4:	83 c0 57             	add    $0x57,%eax
  4019c7:	88 04 0e             	mov    %al,(%rsi,%rcx,1)
  4019ca:	83 ea 01             	sub    $0x1,%edx
  4019cd:	83 fa 07             	cmp    $0x7,%edx
  4019d0:	76 ca                	jbe    40199c <hexmatch+0x69>
  4019d2:	ba 09 00 00 00       	mov    $0x9,%edx
  4019d7:	48 89 ef             	mov    %rbp,%rdi
  4019da:	e8 d1 f2 ff ff       	call   400cb0 <strncmp@plt>
  4019df:	85 c0                	test   %eax,%eax
  4019e1:	0f 94 c0             	sete   %al
  4019e4:	0f b6 c0             	movzbl %al,%eax
  4019e7:	48 8b 7c 24 78       	mov    0x78(%rsp),%rdi
  4019ec:	64 48 33 3c 25 28 00 	xor    %fs:0x28,%rdi
  4019f3:	00 00 
  4019f5:	74 05                	je     4019fc <hexmatch+0xc9>
  4019f7:	e8 f4 f2 ff ff       	call   400cf0 <__stack_chk_fail@plt>
  4019fc:	48 81 c4 88 00 00 00 	add    $0x88,%rsp
  401a03:	5b                   	pop    %rbx
  401a04:	5d                   	pop    %rbp
  401a05:	c3                   	ret    

0000000000401a06 <touch3>:
  401a06:	53                   	push   %rbx
  401a07:	48 89 fb             	mov    %rdi,%rbx
  401a0a:	c7 05 08 3b 20 00 03 	movl   $0x3,0x203b08(%rip)        # 60551c <vlevel>
  401a11:	00 00 00 
  401a14:	48 89 fe             	mov    %rdi,%rsi
  401a17:	8b 3d 07 3b 20 00    	mov    0x203b07(%rip),%edi        # 605524 <cookie>
  401a1d:	e8 11 ff ff ff       	call   401933 <hexmatch>
  401a22:	85 c0                	test   %eax,%eax
  401a24:	74 23                	je     401a49 <touch3+0x43>
  401a26:	48 89 da             	mov    %rbx,%rdx
  401a29:	be c0 34 40 00       	mov    $0x4034c0,%esi
  401a2e:	bf 01 00 00 00       	mov    $0x1,%edi
  401a33:	b8 00 00 00 00       	mov    $0x0,%eax
  401a38:	e8 c3 f3 ff ff       	call   400e00 <__printf_chk@plt>
  401a3d:	bf 03 00 00 00       	mov    $0x3,%edi
  401a42:	e8 5e 04 00 00       	call   401ea5 <validate>
  401a47:	eb 21                	jmp    401a6a <touch3+0x64>
  401a49:	48 89 da             	mov    %rbx,%rdx
  401a4c:	be e8 34 40 00       	mov    $0x4034e8,%esi
  401a51:	bf 01 00 00 00       	mov    $0x1,%edi
  401a56:	b8 00 00 00 00       	mov    $0x0,%eax
  401a5b:	e8 a0 f3 ff ff       	call   400e00 <__printf_chk@plt>
  401a60:	bf 03 00 00 00       	mov    $0x3,%edi
  401a65:	e8 17 05 00 00       	call   401f81 <fail>
  401a6a:	bf 00 00 00 00       	mov    $0x0,%edi
  401a6f:	e8 dc f3 ff ff       	call   400e50 <exit@plt>

0000000000401a74 <test>:
  401a74:	48 83 ec 08          	sub    $0x8,%rsp
  401a78:	b8 00 00 00 00       	mov    $0x0,%eax
  401a7d:	e8 0f fe ff ff       	call   401891 <getbuf>
  401a82:	89 c2                	mov    %eax,%edx
  401a84:	be 10 35 40 00       	mov    $0x403510,%esi
  401a89:	bf 01 00 00 00       	mov    $0x1,%edi
  401a8e:	b8 00 00 00 00       	mov    $0x0,%eax
  401a93:	e8 68 f3 ff ff       	call   400e00 <__printf_chk@plt>
  401a98:	48 83 c4 08          	add    $0x8,%rsp
  401a9c:	c3                   	ret    

0000000000401a9d <start_farm>:						
  401a9d:	b8 01 00 00 00       	mov    $0x1,%eax
  401aa2:	c3                   	ret    

0000000000401aa3 <getval_235>:						#movl eax,edi
  401aa3:	b8 4c 89 c7 c3       	mov    $0xc3c7894c,%eax
  401aa8:	c3                   	ret    

0000000000401aa9 <getval_180>:					#movl rax,rdi #movl eax,edi
  401aa9:	b8 27 48 89 c7       	mov    $0xc7894827,%eax
  401aae:	c3                   	ret    

0000000000401aaf <getval_199>:					#pop rax -> #nop
  401aaf:	b8 38 58 90 c3       	mov    $0xc3905838,%eax
  401ab4:	c3                   	ret    

0000000000401ab5 <addval_364>:                                         #pop rax # nop
  401ab5:	8d 87 58 90 90 90    	lea    -0x6f6f6fa8(%rdi),%eax
  401abb:	c3                   	ret    

0000000000401abc <addval_399>:						#
  401abc:	8d 87 48 89 c7 94    	lea    -0x6b3876b8(%rdi),%eax
  401ac2:	c3                   	ret    

0000000000401ac3 <addval_136>:						#pop rax
  401ac3:	8d 87 ef 58 90 c7    	lea    -0x386fa711(%rdi),%eax
  401ac9:	c3                   	ret    

0000000000401aca <setval_375>:						#pop
  401aca:	c7 07 64 58 c7 5f    	movl   $0x5fc75864,(%rdi)
  401ad0:	c3                   	ret    

0000000000401ad1 <setval_174>:						#mov rdi
  401ad1:	c7 07 48 89 c7 c3    	movl   $0xc3c78948,(%rdi)
  401ad7:	c3                   	ret    

0000000000401ad8 <mid_farm>:	
  401ad8:	b8 01 00 00 00       	mov    $0x1,%eax	
  401add:	c3                   	ret    

0000000000401ade <add_xy>:						#
  401ade:	48 8d 04 37          	lea    (%rdi,%rsi,1),%rax
  401ae2:	c3                   	ret    

0000000000401ae3 <getval_206>:						#
  401ae3:	b8 89 c2 91 90       	mov    $0x9091c289,%eax
  401ae8:	c3                   	ret    

0000000000401ae9 <setval_397>:						
  401ae9:	c7 07 89 ce c3 98    	movl   $0x98c3ce89,(%rdi)
  401aef:	c3                   	ret    

0000000000401af0 <getval_325>:
  401af0:	b8 48 8d e0 c3       	mov    $0xc3e08d48,%eax
  401af5:	c3                   	ret    

0000000000401af6 <addval_473>:
  401af6:	8d 87 48 81 e0 c3    	lea    -0x3c1f7eb8(%rdi),%eax
  401afc:	c3                   	ret    

0000000000401afd <getval_393>:
  401afd:	b8 89 d1 38 d2       	mov    $0xd238d189,%eax
  401b02:	c3                   	ret    

0000000000401b03 <getval_486>:
  401b03:	b8 09 c2 20 d2       	mov    $0xd220c209,%eax
  401b08:	c3                   	ret    

0000000000401b09 <setval_295>:
  401b09:	c7 07 ca a9 ce 90    	movl   $0x90cea9ca,(%rdi)
  401b0f:	c3                   	ret    

0000000000401b10 <setval_139>:
  401b10:	c7 07 89 c2 08 c0    	movl   $0xc008c289,(%rdi)
  401b16:	c3                   	ret    

0000000000401b17 <addval_334>:
  401b17:	8d 87 89 ce 92 90    	lea    -0x6f6d3177(%rdi),%eax
  401b1d:	c3                   	ret    

0000000000401b1e <addval_453>:
  401b1e:	8d 87 8d c2 20 db    	lea    -0x24df3d73(%rdi),%eax
  401b24:	c3                   	ret    

0000000000401b25 <getval_261>:
  401b25:	b8 89 d1 92 90       	mov    $0x9092d189,%eax
  401b2a:	c3                   	ret    

0000000000401b2b <setval_143>:
  401b2b:	c7 07 99 d1 20 db    	movl   $0xdb20d199,(%rdi)
  401b31:	c3                   	ret    

0000000000401b32 <setval_244>:
  401b32:	c7 07 89 c2 20 db    	movl   $0xdb20c289,(%rdi)
  401b38:	c3                   	ret    

0000000000401b39 <addval_470>:
  401b39:	8d 87 89 ce 84 c9    	lea    -0x367b3177(%rdi),%eax
  401b3f:	c3                   	ret    

0000000000401b40 <addval_483>:
  401b40:	8d 87 8d c2 90 c3    	lea    -0x3c6f3d73(%rdi),%eax
  401b46:	c3                   	ret    

0000000000401b47 <addval_378>:
  401b47:	8d 87 48 89 e0 c3    	lea    -0x3c1f76b8(%rdi),%eax
  401b4d:	c3                   	ret    

0000000000401b4e <setval_234>:
  401b4e:	c7 07 48 89 e0 91    	movl   $0x91e08948,(%rdi)
  401b54:	c3                   	ret    

0000000000401b55 <getval_124>:
  401b55:	b8 a9 d1 38 db       	mov    $0xdb38d1a9,%eax
  401b5a:	c3                   	ret    

0000000000401b5b <setval_449>:
  401b5b:	c7 07 48 89 e0 c3    	movl   $0xc3e08948,(%rdi)
  401b61:	c3                   	ret    

0000000000401b62 <getval_257>:
  401b62:	b8 89 ce c1 1b       	mov    $0x1bc1ce89,%eax
  401b67:	c3                   	ret    

0000000000401b68 <getval_192>:
  401b68:	b8 a9 c2 08 db       	mov    $0xdb08c2a9,%eax
  401b6d:	c3                   	ret    

0000000000401b6e <setval_268>:
  401b6e:	c7 07 89 d1 91 90    	movl   $0x9091d189,(%rdi)
  401b74:	c3                   	ret    

0000000000401b75 <setval_130>:
  401b75:	c7 07 a9 ce 08 c0    	movl   $0xc008cea9,(%rdi)
  401b7b:	c3                   	ret    

0000000000401b7c <addval_312>:
  401b7c:	8d 87 89 d1 18 c0    	lea    -0x3fe72e77(%rdi),%eax
  401b82:	c3                   	ret    

0000000000401b83 <setval_102>:
  401b83:	c7 07 48 89 e0 c7    	movl   $0xc7e08948,(%rdi)
  401b89:	c3                   	ret    

0000000000401b8a <setval_121>:
  401b8a:	c7 07 48 8d e0 90    	movl   $0x90e08d48,(%rdi)
  401b90:	c3                   	ret    

0000000000401b91 <addval_418>:
  401b91:	8d 87 89 c2 c2 fa    	lea    -0x53d3d77(%rdi),%eax
  401b97:	c3                   	ret    

0000000000401b98 <addval_360>:
  401b98:	8d 87 89 d1 90 c3    	lea    -0x3c6f2e77(%rdi),%eax
  401b9e:	c3                   	ret    

0000000000401b9f <setval_314>:
  401b9f:	c7 07 89 ce 18 d2    	movl   $0xd218ce89,(%rdi)
  401ba5:	c3                   	ret    

0000000000401ba6 <addval_173>:
  401ba6:	8d 87 48 89 e0 91    	lea    -0x6e1f76b8(%rdi),%eax
  401bac:	c3                   	ret    

0000000000401bad <addval_494>:
  401bad:	8d 87 89 d1 c2 3c    	lea    0x3cc2d189(%rdi),%eax
  401bb3:	c3                   	ret    

0000000000401bb4 <getval_377>:
  401bb4:	b8 8d ce 90 90       	mov    $0x9090ce8d,%eax
  401bb9:	c3                   	ret    

0000000000401bba <end_farm>:
  401bba:	b8 01 00 00 00       	mov    $0x1,%eax
  401bbf:	c3                   	ret    

0000000000401bc0 <save_char>:
  401bc0:	8b 05 7e 45 20 00    	mov    0x20457e(%rip),%eax        # 606144 <gets_cnt>
  401bc6:	3d ff 03 00 00       	cmp    $0x3ff,%eax
  401bcb:	7f 49                	jg     401c16 <save_char+0x56>
  401bcd:	8d 14 40             	lea    (%rax,%rax,2),%edx
  401bd0:	89 f9                	mov    %edi,%ecx
  401bd2:	c0 e9 04             	shr    $0x4,%cl
  401bd5:	83 e1 0f             	and    $0xf,%ecx
  401bd8:	0f b6 b1 30 38 40 00 	movzbl 0x403830(%rcx),%esi
  401bdf:	48 63 ca             	movslq %edx,%rcx
  401be2:	40 88 b1 40 55 60 00 	mov    %sil,0x605540(%rcx)
  401be9:	8d 4a 01             	lea    0x1(%rdx),%ecx
  401bec:	83 e7 0f             	and    $0xf,%edi
  401bef:	0f b6 b7 30 38 40 00 	movzbl 0x403830(%rdi),%esi
  401bf6:	48 63 c9             	movslq %ecx,%rcx
  401bf9:	40 88 b1 40 55 60 00 	mov    %sil,0x605540(%rcx)
  401c00:	83 c2 02             	add    $0x2,%edx
  401c03:	48 63 d2             	movslq %edx,%rdx
  401c06:	c6 82 40 55 60 00 20 	movb   $0x20,0x605540(%rdx)
  401c0d:	83 c0 01             	add    $0x1,%eax
  401c10:	89 05 2e 45 20 00    	mov    %eax,0x20452e(%rip)        # 606144 <gets_cnt>
  401c16:	f3 c3                	repz ret 

0000000000401c18 <save_term>:
  401c18:	8b 05 26 45 20 00    	mov    0x204526(%rip),%eax        # 606144 <gets_cnt>
  401c1e:	8d 04 40             	lea    (%rax,%rax,2),%eax
  401c21:	48 98                	cltq   
  401c23:	c6 80 40 55 60 00 00 	movb   $0x0,0x605540(%rax)
  401c2a:	c3                   	ret    

0000000000401c2b <check_fail>:
  401c2b:	48 83 ec 08          	sub    $0x8,%rsp
  401c2f:	0f be 15 12 45 20 00 	movsbl 0x204512(%rip),%edx        # 606148 <target_prefix>
  401c36:	41 b8 40 55 60 00    	mov    $0x605540,%r8d
  401c3c:	8b 0d d6 38 20 00    	mov    0x2038d6(%rip),%ecx        # 605518 <check_level>
  401c42:	be 33 35 40 00       	mov    $0x403533,%esi
  401c47:	bf 01 00 00 00       	mov    $0x1,%edi
  401c4c:	b8 00 00 00 00       	mov    $0x0,%eax
  401c51:	e8 aa f1 ff ff       	call   400e00 <__printf_chk@plt>
  401c56:	bf 01 00 00 00       	mov    $0x1,%edi
  401c5b:	e8 f0 f1 ff ff       	call   400e50 <exit@plt>

0000000000401c60 <Gets>:
  401c60:	41 54                	push   %r12
  401c62:	55                   	push   %rbp
  401c63:	53                   	push   %rbx
  401c64:	49 89 fc             	mov    %rdi,%r12
  401c67:	c7 05 d3 44 20 00 00 	movl   $0x0,0x2044d3(%rip)        # 606144 <gets_cnt>
  401c6e:	00 00 00 
  401c71:	48 89 fb             	mov    %rdi,%rbx
  401c74:	eb 11                	jmp    401c87 <Gets+0x27>
  401c76:	48 8d 6b 01          	lea    0x1(%rbx),%rbp
  401c7a:	88 03                	mov    %al,(%rbx)
  401c7c:	0f b6 f8             	movzbl %al,%edi
  401c7f:	e8 3c ff ff ff       	call   401bc0 <save_char>
  401c84:	48 89 eb             	mov    %rbp,%rbx
  401c87:	48 8b 3d 82 38 20 00 	mov    0x203882(%rip),%rdi        # 605510 <infile>
  401c8e:	e8 3d f1 ff ff       	call   400dd0 <_IO_getc@plt>
  401c93:	83 f8 ff             	cmp    $0xffffffff,%eax
  401c96:	74 05                	je     401c9d <Gets+0x3d>
  401c98:	83 f8 0a             	cmp    $0xa,%eax
  401c9b:	75 d9                	jne    401c76 <Gets+0x16>
  401c9d:	c6 03 00             	movb   $0x0,(%rbx)
  401ca0:	b8 00 00 00 00       	mov    $0x0,%eax
  401ca5:	e8 6e ff ff ff       	call   401c18 <save_term>
  401caa:	4c 89 e0             	mov    %r12,%rax
  401cad:	5b                   	pop    %rbx
  401cae:	5d                   	pop    %rbp
  401caf:	41 5c                	pop    %r12
  401cb1:	c3                   	ret    

0000000000401cb2 <notify_server>:
  401cb2:	53                   	push   %rbx
  401cb3:	48 81 ec 10 40 00 00 	sub    $0x4010,%rsp
  401cba:	64 48 8b 04 25 28 00 	mov    %fs:0x28,%rax
  401cc1:	00 00 
  401cc3:	48 89 84 24 08 40 00 	mov    %rax,0x4008(%rsp)
  401cca:	00 
  401ccb:	31 c0                	xor    %eax,%eax
  401ccd:	83 3d 54 38 20 00 00 	cmpl   $0x0,0x203854(%rip)        # 605528 <is_checker>
  401cd4:	0f 85 aa 01 00 00    	jne    401e84 <notify_server+0x1d2>
  401cda:	89 fb                	mov    %edi,%ebx
  401cdc:	8b 05 62 44 20 00    	mov    0x204462(%rip),%eax        # 606144 <gets_cnt>
  401ce2:	83 c0 64             	add    $0x64,%eax
  401ce5:	3d 00 20 00 00       	cmp    $0x2000,%eax
  401cea:	7e 1e                	jle    401d0a <notify_server+0x58>
  401cec:	be 68 36 40 00       	mov    $0x403668,%esi
  401cf1:	bf 01 00 00 00       	mov    $0x1,%edi
  401cf6:	b8 00 00 00 00       	mov    $0x0,%eax
  401cfb:	e8 00 f1 ff ff       	call   400e00 <__printf_chk@plt>
  401d00:	bf 01 00 00 00       	mov    $0x1,%edi
  401d05:	e8 46 f1 ff ff       	call   400e50 <exit@plt>
  401d0a:	0f be 05 37 44 20 00 	movsbl 0x204437(%rip),%eax        # 606148 <target_prefix>
  401d11:	83 3d 90 37 20 00 00 	cmpl   $0x0,0x203790(%rip)        # 6054a8 <notify>
  401d18:	74 08                	je     401d22 <notify_server+0x70>
  401d1a:	8b 15 00 38 20 00    	mov    0x203800(%rip),%edx        # 605520 <authkey>
  401d20:	eb 05                	jmp    401d27 <notify_server+0x75>
  401d22:	ba ff ff ff ff       	mov    $0xffffffff,%edx
  401d27:	85 db                	test   %ebx,%ebx
  401d29:	74 08                	je     401d33 <notify_server+0x81>
  401d2b:	41 b9 49 35 40 00    	mov    $0x403549,%r9d
  401d31:	eb 06                	jmp    401d39 <notify_server+0x87>
  401d33:	41 b9 4e 35 40 00    	mov    $0x40354e,%r9d
  401d39:	68 40 55 60 00       	push   $0x605540
  401d3e:	56                   	push   %rsi
  401d3f:	50                   	push   %rax
  401d40:	52                   	push   %rdx
  401d41:	44 8b 05 20 34 20 00 	mov    0x203420(%rip),%r8d        # 605168 <target_id>
  401d48:	b9 53 35 40 00       	mov    $0x403553,%ecx
  401d4d:	ba 00 20 00 00       	mov    $0x2000,%edx
  401d52:	be 01 00 00 00       	mov    $0x1,%esi
  401d57:	48 8d 7c 24 20       	lea    0x20(%rsp),%rdi
  401d5c:	b8 00 00 00 00       	mov    $0x0,%eax
  401d61:	e8 1a f1 ff ff       	call   400e80 <__sprintf_chk@plt>
  401d66:	48 83 c4 20          	add    $0x20,%rsp
  401d6a:	83 3d 37 37 20 00 00 	cmpl   $0x0,0x203737(%rip)        # 6054a8 <notify>
  401d71:	0f 84 81 00 00 00    	je     401df8 <notify_server+0x146>
  401d77:	85 db                	test   %ebx,%ebx
  401d79:	74 6e                	je     401de9 <notify_server+0x137>
  401d7b:	4c 8d 8c 24 00 20 00 	lea    0x2000(%rsp),%r9
  401d82:	00 
  401d83:	41 b8 00 00 00 00    	mov    $0x0,%r8d
  401d89:	48 89 e1             	mov    %rsp,%rcx
  401d8c:	48 8b 15 dd 33 20 00 	mov    0x2033dd(%rip),%rdx        # 605170 <lab>
  401d93:	48 8b 35 de 33 20 00 	mov    0x2033de(%rip),%rsi        # 605178 <course>
  401d9a:	48 8b 3d bf 33 20 00 	mov    0x2033bf(%rip),%rdi        # 605160 <user_id>
  401da1:	e8 09 11 00 00       	call   402eaf <driver_post>
  401da6:	85 c0                	test   %eax,%eax
  401da8:	79 26                	jns    401dd0 <notify_server+0x11e>
  401daa:	48 8d 94 24 00 20 00 	lea    0x2000(%rsp),%rdx
  401db1:	00 
  401db2:	be 6f 35 40 00       	mov    $0x40356f,%esi
  401db7:	bf 01 00 00 00       	mov    $0x1,%edi
  401dbc:	b8 00 00 00 00       	mov    $0x0,%eax
  401dc1:	e8 3a f0 ff ff       	call   400e00 <__printf_chk@plt>
  401dc6:	bf 01 00 00 00       	mov    $0x1,%edi
  401dcb:	e8 80 f0 ff ff       	call   400e50 <exit@plt>
  401dd0:	bf 98 36 40 00       	mov    $0x403698,%edi
  401dd5:	e8 f6 ee ff ff       	call   400cd0 <puts@plt>
  401dda:	bf 7b 35 40 00       	mov    $0x40357b,%edi
  401ddf:	e8 ec ee ff ff       	call   400cd0 <puts@plt>
  401de4:	e9 9b 00 00 00       	jmp    401e84 <notify_server+0x1d2>
  401de9:	bf 85 35 40 00       	mov    $0x403585,%edi
  401dee:	e8 dd ee ff ff       	call   400cd0 <puts@plt>
  401df3:	e9 8c 00 00 00       	jmp    401e84 <notify_server+0x1d2>
  401df8:	85 db                	test   %ebx,%ebx
  401dfa:	74 07                	je     401e03 <notify_server+0x151>
  401dfc:	ba 49 35 40 00       	mov    $0x403549,%edx
  401e01:	eb 05                	jmp    401e08 <notify_server+0x156>
  401e03:	ba 4e 35 40 00       	mov    $0x40354e,%edx
  401e08:	be d0 36 40 00       	mov    $0x4036d0,%esi
  401e0d:	bf 01 00 00 00       	mov    $0x1,%edi
  401e12:	b8 00 00 00 00       	mov    $0x0,%eax
  401e17:	e8 e4 ef ff ff       	call   400e00 <__printf_chk@plt>
  401e1c:	48 8b 15 3d 33 20 00 	mov    0x20333d(%rip),%rdx        # 605160 <user_id>
  401e23:	be 8c 35 40 00       	mov    $0x40358c,%esi
  401e28:	bf 01 00 00 00       	mov    $0x1,%edi
  401e2d:	b8 00 00 00 00       	mov    $0x0,%eax
  401e32:	e8 c9 ef ff ff       	call   400e00 <__printf_chk@plt>
  401e37:	48 8b 15 3a 33 20 00 	mov    0x20333a(%rip),%rdx        # 605178 <course>
  401e3e:	be 99 35 40 00       	mov    $0x403599,%esi
  401e43:	bf 01 00 00 00       	mov    $0x1,%edi
  401e48:	b8 00 00 00 00       	mov    $0x0,%eax
  401e4d:	e8 ae ef ff ff       	call   400e00 <__printf_chk@plt>
  401e52:	48 8b 15 17 33 20 00 	mov    0x203317(%rip),%rdx        # 605170 <lab>
  401e59:	be a5 35 40 00       	mov    $0x4035a5,%esi
  401e5e:	bf 01 00 00 00       	mov    $0x1,%edi
  401e63:	b8 00 00 00 00       	mov    $0x0,%eax
  401e68:	e8 93 ef ff ff       	call   400e00 <__printf_chk@plt>
  401e6d:	48 89 e2             	mov    %rsp,%rdx
  401e70:	be ae 35 40 00       	mov    $0x4035ae,%esi
  401e75:	bf 01 00 00 00       	mov    $0x1,%edi
  401e7a:	b8 00 00 00 00       	mov    $0x0,%eax
  401e7f:	e8 7c ef ff ff       	call   400e00 <__printf_chk@plt>
  401e84:	48 8b 84 24 08 40 00 	mov    0x4008(%rsp),%rax
  401e8b:	00 
  401e8c:	64 48 33 04 25 28 00 	xor    %fs:0x28,%rax
  401e93:	00 00 
  401e95:	74 05                	je     401e9c <notify_server+0x1ea>
  401e97:	e8 54 ee ff ff       	call   400cf0 <__stack_chk_fail@plt>
  401e9c:	48 81 c4 10 40 00 00 	add    $0x4010,%rsp
  401ea3:	5b                   	pop    %rbx
  401ea4:	c3                   	ret    

0000000000401ea5 <validate>:
  401ea5:	4c 8d 54 24 08       	lea    0x8(%rsp),%r10
  401eaa:	48 83 e4 f0          	and    $0xfffffffffffffff0,%rsp
  401eae:	41 ff 72 f8          	push   -0x8(%r10)
  401eb2:	55                   	push   %rbp
  401eb3:	48 89 e5             	mov    %rsp,%rbp
  401eb6:	41 52                	push   %r10
  401eb8:	53                   	push   %rbx
  401eb9:	89 fb                	mov    %edi,%ebx
  401ebb:	83 3d 66 36 20 00 00 	cmpl   $0x0,0x203666(%rip)        # 605528 <is_checker>
  401ec2:	74 6b                	je     401f2f <validate+0x8a>
  401ec4:	39 3d 52 36 20 00    	cmp    %edi,0x203652(%rip)        # 60551c <vlevel>
  401eca:	74 14                	je     401ee0 <validate+0x3b>
  401ecc:	bf ba 35 40 00       	mov    $0x4035ba,%edi
  401ed1:	e8 fa ed ff ff       	call   400cd0 <puts@plt>
  401ed6:	b8 00 00 00 00       	mov    $0x0,%eax
  401edb:	e8 4b fd ff ff       	call   401c2b <check_fail>
  401ee0:	8b 15 32 36 20 00    	mov    0x203632(%rip),%edx        # 605518 <check_level>
  401ee6:	39 d7                	cmp    %edx,%edi
  401ee8:	74 20                	je     401f0a <validate+0x65>
  401eea:	89 f9                	mov    %edi,%ecx
  401eec:	be f8 36 40 00       	mov    $0x4036f8,%esi
  401ef1:	bf 01 00 00 00       	mov    $0x1,%edi
  401ef6:	b8 00 00 00 00       	mov    $0x0,%eax
  401efb:	e8 00 ef ff ff       	call   400e00 <__printf_chk@plt>
  401f00:	b8 00 00 00 00       	mov    $0x0,%eax
  401f05:	e8 21 fd ff ff       	call   401c2b <check_fail>
  401f0a:	0f be 15 37 42 20 00 	movsbl 0x204237(%rip),%edx        # 606148 <target_prefix>
  401f11:	41 b8 40 55 60 00    	mov    $0x605540,%r8d
  401f17:	89 f9                	mov    %edi,%ecx
  401f19:	be d8 35 40 00       	mov    $0x4035d8,%esi
  401f1e:	bf 01 00 00 00       	mov    $0x1,%edi
  401f23:	b8 00 00 00 00       	mov    $0x0,%eax
  401f28:	e8 d3 ee ff ff       	call   400e00 <__printf_chk@plt>
  401f2d:	eb 49                	jmp    401f78 <validate+0xd3>
  401f2f:	3b 3d e7 35 20 00    	cmp    0x2035e7(%rip),%edi        # 60551c <vlevel>
  401f35:	74 18                	je     401f4f <validate+0xaa>
  401f37:	bf ba 35 40 00       	mov    $0x4035ba,%edi
  401f3c:	e8 8f ed ff ff       	call   400cd0 <puts@plt>
  401f41:	89 de                	mov    %ebx,%esi
  401f43:	bf 00 00 00 00       	mov    $0x0,%edi
  401f48:	e8 65 fd ff ff       	call   401cb2 <notify_server>
  401f4d:	eb 29                	jmp    401f78 <validate+0xd3>
  401f4f:	0f be 0d f2 41 20 00 	movsbl 0x2041f2(%rip),%ecx        # 606148 <target_prefix>
  401f56:	89 fa                	mov    %edi,%edx
  401f58:	be 20 37 40 00       	mov    $0x403720,%esi
  401f5d:	bf 01 00 00 00       	mov    $0x1,%edi
  401f62:	b8 00 00 00 00       	mov    $0x0,%eax
  401f67:	e8 94 ee ff ff       	call   400e00 <__printf_chk@plt>
  401f6c:	89 de                	mov    %ebx,%esi
  401f6e:	bf 01 00 00 00       	mov    $0x1,%edi
  401f73:	e8 3a fd ff ff       	call   401cb2 <notify_server>
  401f78:	5b                   	pop    %rbx
  401f79:	41 5a                	pop    %r10
  401f7b:	5d                   	pop    %rbp
  401f7c:	49 8d 62 f8          	lea    -0x8(%r10),%rsp
  401f80:	c3                   	ret    

0000000000401f81 <fail>:
  401f81:	48 83 ec 08          	sub    $0x8,%rsp
  401f85:	83 3d 9c 35 20 00 00 	cmpl   $0x0,0x20359c(%rip)        # 605528 <is_checker>
  401f8c:	74 0a                	je     401f98 <fail+0x17>
  401f8e:	b8 00 00 00 00       	mov    $0x0,%eax
  401f93:	e8 93 fc ff ff       	call   401c2b <check_fail>
  401f98:	89 fe                	mov    %edi,%esi
  401f9a:	bf 00 00 00 00       	mov    $0x0,%edi
  401f9f:	e8 0e fd ff ff       	call   401cb2 <notify_server>
  401fa4:	48 83 c4 08          	add    $0x8,%rsp
  401fa8:	c3                   	ret    

0000000000401fa9 <bushandler>:
  401fa9:	48 83 ec 08          	sub    $0x8,%rsp
  401fad:	83 3d 74 35 20 00 00 	cmpl   $0x0,0x203574(%rip)        # 605528 <is_checker>
  401fb4:	74 14                	je     401fca <bushandler+0x21>
  401fb6:	bf ed 35 40 00       	mov    $0x4035ed,%edi
  401fbb:	e8 10 ed ff ff       	call   400cd0 <puts@plt>
  401fc0:	b8 00 00 00 00       	mov    $0x0,%eax
  401fc5:	e8 61 fc ff ff       	call   401c2b <check_fail>
  401fca:	bf 58 37 40 00       	mov    $0x403758,%edi
  401fcf:	e8 fc ec ff ff       	call   400cd0 <puts@plt>
  401fd4:	bf f7 35 40 00       	mov    $0x4035f7,%edi
  401fd9:	e8 f2 ec ff ff       	call   400cd0 <puts@plt>
  401fde:	be 00 00 00 00       	mov    $0x0,%esi
  401fe3:	bf 00 00 00 00       	mov    $0x0,%edi
  401fe8:	e8 c5 fc ff ff       	call   401cb2 <notify_server>
  401fed:	bf 01 00 00 00       	mov    $0x1,%edi
  401ff2:	e8 59 ee ff ff       	call   400e50 <exit@plt>

0000000000401ff7 <seghandler>:
  401ff7:	48 83 ec 08          	sub    $0x8,%rsp
  401ffb:	83 3d 26 35 20 00 00 	cmpl   $0x0,0x203526(%rip)        # 605528 <is_checker>
  402002:	74 14                	je     402018 <seghandler+0x21>
  402004:	bf 0d 36 40 00       	mov    $0x40360d,%edi
  402009:	e8 c2 ec ff ff       	call   400cd0 <puts@plt>
  40200e:	b8 00 00 00 00       	mov    $0x0,%eax
  402013:	e8 13 fc ff ff       	call   401c2b <check_fail>
  402018:	bf 78 37 40 00       	mov    $0x403778,%edi
  40201d:	e8 ae ec ff ff       	call   400cd0 <puts@plt>
  402022:	bf f7 35 40 00       	mov    $0x4035f7,%edi
  402027:	e8 a4 ec ff ff       	call   400cd0 <puts@plt>
  40202c:	be 00 00 00 00       	mov    $0x0,%esi
  402031:	bf 00 00 00 00       	mov    $0x0,%edi
  402036:	e8 77 fc ff ff       	call   401cb2 <notify_server>
  40203b:	bf 01 00 00 00       	mov    $0x1,%edi
  402040:	e8 0b ee ff ff       	call   400e50 <exit@plt>

0000000000402045 <illegalhandler>:
  402045:	48 83 ec 08          	sub    $0x8,%rsp
  402049:	83 3d d8 34 20 00 00 	cmpl   $0x0,0x2034d8(%rip)        # 605528 <is_checker>
  402050:	74 14                	je     402066 <illegalhandler+0x21>
  402052:	bf 20 36 40 00       	mov    $0x403620,%edi
  402057:	e8 74 ec ff ff       	call   400cd0 <puts@plt>
  40205c:	b8 00 00 00 00       	mov    $0x0,%eax
  402061:	e8 c5 fb ff ff       	call   401c2b <check_fail>
  402066:	bf a0 37 40 00       	mov    $0x4037a0,%edi
  40206b:	e8 60 ec ff ff       	call   400cd0 <puts@plt>
  402070:	bf f7 35 40 00       	mov    $0x4035f7,%edi
  402075:	e8 56 ec ff ff       	call   400cd0 <puts@plt>
  40207a:	be 00 00 00 00       	mov    $0x0,%esi
  40207f:	bf 00 00 00 00       	mov    $0x0,%edi
  402084:	e8 29 fc ff ff       	call   401cb2 <notify_server>
  402089:	bf 01 00 00 00       	mov    $0x1,%edi
  40208e:	e8 bd ed ff ff       	call   400e50 <exit@plt>

0000000000402093 <sigalrmhandler>:
  402093:	48 83 ec 08          	sub    $0x8,%rsp
  402097:	83 3d 8a 34 20 00 00 	cmpl   $0x0,0x20348a(%rip)        # 605528 <is_checker>
  40209e:	74 14                	je     4020b4 <sigalrmhandler+0x21>
  4020a0:	bf 34 36 40 00       	mov    $0x403634,%edi
  4020a5:	e8 26 ec ff ff       	call   400cd0 <puts@plt>
  4020aa:	b8 00 00 00 00       	mov    $0x0,%eax
  4020af:	e8 77 fb ff ff       	call   401c2b <check_fail>
  4020b4:	ba 05 00 00 00       	mov    $0x5,%edx
  4020b9:	be d0 37 40 00       	mov    $0x4037d0,%esi
  4020be:	bf 01 00 00 00       	mov    $0x1,%edi
  4020c3:	b8 00 00 00 00       	mov    $0x0,%eax
  4020c8:	e8 33 ed ff ff       	call   400e00 <__printf_chk@plt>
  4020cd:	be 00 00 00 00       	mov    $0x0,%esi
  4020d2:	bf 00 00 00 00       	mov    $0x0,%edi
  4020d7:	e8 d6 fb ff ff       	call   401cb2 <notify_server>
  4020dc:	bf 01 00 00 00       	mov    $0x1,%edi
  4020e1:	e8 6a ed ff ff       	call   400e50 <exit@plt>

00000000004020e6 <launch>:
  4020e6:	55                   	push   %rbp
  4020e7:	48 89 e5             	mov    %rsp,%rbp
  4020ea:	48 83 ec 10          	sub    $0x10,%rsp
  4020ee:	48 89 fa             	mov    %rdi,%rdx
  4020f1:	64 48 8b 04 25 28 00 	mov    %fs:0x28,%rax
  4020f8:	00 00 
  4020fa:	48 89 45 f8          	mov    %rax,-0x8(%rbp)
  4020fe:	31 c0                	xor    %eax,%eax
  402100:	48 8d 47 1e          	lea    0x1e(%rdi),%rax
  402104:	48 83 e0 f0          	and    $0xfffffffffffffff0,%rax
  402108:	48 29 c4             	sub    %rax,%rsp
  40210b:	48 8d 7c 24 0f       	lea    0xf(%rsp),%rdi
  402110:	48 83 e7 f0          	and    $0xfffffffffffffff0,%rdi
  402114:	be f4 00 00 00       	mov    $0xf4,%esi
  402119:	e8 f2 eb ff ff       	call   400d10 <memset@plt>
  40211e:	48 8b 05 9b 33 20 00 	mov    0x20339b(%rip),%rax        # 6054c0 <stdin@GLIBC_2.2.5>
  402125:	48 39 05 e4 33 20 00 	cmp    %rax,0x2033e4(%rip)        # 605510 <infile>
  40212c:	75 14                	jne    402142 <launch+0x5c>
  40212e:	be 3c 36 40 00       	mov    $0x40363c,%esi
  402133:	bf 01 00 00 00       	mov    $0x1,%edi
  402138:	b8 00 00 00 00       	mov    $0x0,%eax
  40213d:	e8 be ec ff ff       	call   400e00 <__printf_chk@plt>
  402142:	c7 05 d0 33 20 00 00 	movl   $0x0,0x2033d0(%rip)        # 60551c <vlevel>
  402149:	00 00 00 
  40214c:	b8 00 00 00 00       	mov    $0x0,%eax
  402151:	e8 1e f9 ff ff       	call   401a74 <test>
  402156:	83 3d cb 33 20 00 00 	cmpl   $0x0,0x2033cb(%rip)        # 605528 <is_checker>
  40215d:	74 14                	je     402173 <launch+0x8d>
  40215f:	bf 49 36 40 00       	mov    $0x403649,%edi
  402164:	e8 67 eb ff ff       	call   400cd0 <puts@plt>
  402169:	b8 00 00 00 00       	mov    $0x0,%eax
  40216e:	e8 b8 fa ff ff       	call   401c2b <check_fail>
  402173:	bf 54 36 40 00       	mov    $0x403654,%edi
  402178:	e8 53 eb ff ff       	call   400cd0 <puts@plt>
  40217d:	48 8b 45 f8          	mov    -0x8(%rbp),%rax
  402181:	64 48 33 04 25 28 00 	xor    %fs:0x28,%rax
  402188:	00 00 
  40218a:	74 05                	je     402191 <launch+0xab>
  40218c:	e8 5f eb ff ff       	call   400cf0 <__stack_chk_fail@plt>
  402191:	c9                   	leave  
  402192:	c3                   	ret    

0000000000402193 <stable_launch>:
  402193:	53                   	push   %rbx
  402194:	48 89 3d 6d 33 20 00 	mov    %rdi,0x20336d(%rip)        # 605508 <global_offset>
  40219b:	41 b9 00 00 00 00    	mov    $0x0,%r9d
  4021a1:	41 b8 00 00 00 00    	mov    $0x0,%r8d
  4021a7:	b9 32 01 00 00       	mov    $0x132,%ecx
  4021ac:	ba 07 00 00 00       	mov    $0x7,%edx
  4021b1:	be 00 00 10 00       	mov    $0x100000,%esi
  4021b6:	bf 00 60 58 55       	mov    $0x55586000,%edi
  4021bb:	e8 40 eb ff ff       	call   400d00 <mmap@plt>
  4021c0:	48 89 c3             	mov    %rax,%rbx
  4021c3:	48 3d 00 60 58 55    	cmp    $0x55586000,%rax
  4021c9:	74 37                	je     402202 <stable_launch+0x6f>
  4021cb:	be 00 00 10 00       	mov    $0x100000,%esi
  4021d0:	48 89 c7             	mov    %rax,%rdi
  4021d3:	e8 18 ec ff ff       	call   400df0 <munmap@plt>
  4021d8:	b9 00 60 58 55       	mov    $0x55586000,%ecx
  4021dd:	ba 08 38 40 00       	mov    $0x403808,%edx
  4021e2:	be 01 00 00 00       	mov    $0x1,%esi
  4021e7:	48 8b 3d f2 32 20 00 	mov    0x2032f2(%rip),%rdi        # 6054e0 <stderr@GLIBC_2.2.5>
  4021ee:	b8 00 00 00 00       	mov    $0x0,%eax
  4021f3:	e8 78 ec ff ff       	call   400e70 <__fprintf_chk@plt>
  4021f8:	bf 01 00 00 00       	mov    $0x1,%edi
  4021fd:	e8 4e ec ff ff       	call   400e50 <exit@plt>
  402202:	48 8d 90 f8 ff 0f 00 	lea    0xffff8(%rax),%rdx
  402209:	48 89 15 40 3f 20 00 	mov    %rdx,0x203f40(%rip)        # 606150 <stack_top>
  402210:	48 89 e0             	mov    %rsp,%rax
  402213:	48 89 d4             	mov    %rdx,%rsp
  402216:	48 89 c2             	mov    %rax,%rdx
  402219:	48 89 15 e0 32 20 00 	mov    %rdx,0x2032e0(%rip)        # 605500 <global_save_stack>
  402220:	48 8b 3d e1 32 20 00 	mov    0x2032e1(%rip),%rdi        # 605508 <global_offset>
  402227:	e8 ba fe ff ff       	call   4020e6 <launch>
  40222c:	48 8b 05 cd 32 20 00 	mov    0x2032cd(%rip),%rax        # 605500 <global_save_stack>
  402233:	48 89 c4             	mov    %rax,%rsp
  402236:	be 00 00 10 00       	mov    $0x100000,%esi
  40223b:	48 89 df             	mov    %rbx,%rdi
  40223e:	e8 ad eb ff ff       	call   400df0 <munmap@plt>
  402243:	5b                   	pop    %rbx
  402244:	c3                   	ret    

0000000000402245 <rio_readinitb>:
  402245:	89 37                	mov    %esi,(%rdi)
  402247:	c7 47 04 00 00 00 00 	movl   $0x0,0x4(%rdi)
  40224e:	48 8d 47 10          	lea    0x10(%rdi),%rax
  402252:	48 89 47 08          	mov    %rax,0x8(%rdi)
  402256:	c3                   	ret    

0000000000402257 <sigalrm_handler>:
  402257:	48 83 ec 08          	sub    $0x8,%rsp
  40225b:	b9 00 00 00 00       	mov    $0x0,%ecx
  402260:	ba 40 38 40 00       	mov    $0x403840,%edx
  402265:	be 01 00 00 00       	mov    $0x1,%esi
  40226a:	48 8b 3d 6f 32 20 00 	mov    0x20326f(%rip),%rdi        # 6054e0 <stderr@GLIBC_2.2.5>
  402271:	b8 00 00 00 00       	mov    $0x0,%eax
  402276:	e8 f5 eb ff ff       	call   400e70 <__fprintf_chk@plt>
  40227b:	bf 01 00 00 00       	mov    $0x1,%edi
  402280:	e8 cb eb ff ff       	call   400e50 <exit@plt>

0000000000402285 <rio_writen>:
  402285:	41 55                	push   %r13
  402287:	41 54                	push   %r12
  402289:	55                   	push   %rbp
  40228a:	53                   	push   %rbx
  40228b:	48 83 ec 08          	sub    $0x8,%rsp
  40228f:	41 89 fc             	mov    %edi,%r12d
  402292:	48 89 f5             	mov    %rsi,%rbp
  402295:	49 89 d5             	mov    %rdx,%r13
  402298:	48 89 d3             	mov    %rdx,%rbx
  40229b:	eb 28                	jmp    4022c5 <rio_writen+0x40>
  40229d:	48 89 da             	mov    %rbx,%rdx
  4022a0:	48 89 ee             	mov    %rbp,%rsi
  4022a3:	44 89 e7             	mov    %r12d,%edi
  4022a6:	e8 35 ea ff ff       	call   400ce0 <write@plt>
  4022ab:	48 85 c0             	test   %rax,%rax
  4022ae:	7f 0f                	jg     4022bf <rio_writen+0x3a>
  4022b0:	e8 db e9 ff ff       	call   400c90 <__errno_location@plt>
  4022b5:	83 38 04             	cmpl   $0x4,(%rax)
  4022b8:	75 15                	jne    4022cf <rio_writen+0x4a>
  4022ba:	b8 00 00 00 00       	mov    $0x0,%eax
  4022bf:	48 29 c3             	sub    %rax,%rbx
  4022c2:	48 01 c5             	add    %rax,%rbp
  4022c5:	48 85 db             	test   %rbx,%rbx
  4022c8:	75 d3                	jne    40229d <rio_writen+0x18>
  4022ca:	4c 89 e8             	mov    %r13,%rax
  4022cd:	eb 07                	jmp    4022d6 <rio_writen+0x51>
  4022cf:	48 c7 c0 ff ff ff ff 	mov    $0xffffffffffffffff,%rax
  4022d6:	48 83 c4 08          	add    $0x8,%rsp
  4022da:	5b                   	pop    %rbx
  4022db:	5d                   	pop    %rbp
  4022dc:	41 5c                	pop    %r12
  4022de:	41 5d                	pop    %r13
  4022e0:	c3                   	ret    

00000000004022e1 <rio_read>:
  4022e1:	41 55                	push   %r13
  4022e3:	41 54                	push   %r12
  4022e5:	55                   	push   %rbp
  4022e6:	53                   	push   %rbx
  4022e7:	48 83 ec 08          	sub    $0x8,%rsp
  4022eb:	48 89 fb             	mov    %rdi,%rbx
  4022ee:	49 89 f5             	mov    %rsi,%r13
  4022f1:	49 89 d4             	mov    %rdx,%r12
  4022f4:	eb 2e                	jmp    402324 <rio_read+0x43>
  4022f6:	48 8d 6b 10          	lea    0x10(%rbx),%rbp
  4022fa:	8b 3b                	mov    (%rbx),%edi
  4022fc:	ba 00 20 00 00       	mov    $0x2000,%edx
  402301:	48 89 ee             	mov    %rbp,%rsi
  402304:	e8 37 ea ff ff       	call   400d40 <read@plt>
  402309:	89 43 04             	mov    %eax,0x4(%rbx)
  40230c:	85 c0                	test   %eax,%eax
  40230e:	79 0c                	jns    40231c <rio_read+0x3b>
  402310:	e8 7b e9 ff ff       	call   400c90 <__errno_location@plt>
  402315:	83 38 04             	cmpl   $0x4,(%rax)
  402318:	74 0a                	je     402324 <rio_read+0x43>
  40231a:	eb 37                	jmp    402353 <rio_read+0x72>
  40231c:	85 c0                	test   %eax,%eax
  40231e:	74 3c                	je     40235c <rio_read+0x7b>
  402320:	48 89 6b 08          	mov    %rbp,0x8(%rbx)
  402324:	8b 6b 04             	mov    0x4(%rbx),%ebp
  402327:	85 ed                	test   %ebp,%ebp
  402329:	7e cb                	jle    4022f6 <rio_read+0x15>
  40232b:	89 e8                	mov    %ebp,%eax
  40232d:	49 39 c4             	cmp    %rax,%r12
  402330:	77 03                	ja     402335 <rio_read+0x54>
  402332:	44 89 e5             	mov    %r12d,%ebp
  402335:	4c 63 e5             	movslq %ebp,%r12
  402338:	48 8b 73 08          	mov    0x8(%rbx),%rsi
  40233c:	4c 89 e2             	mov    %r12,%rdx
  40233f:	4c 89 ef             	mov    %r13,%rdi
  402342:	e8 59 ea ff ff       	call   400da0 <memcpy@plt>
  402347:	4c 01 63 08          	add    %r12,0x8(%rbx)
  40234b:	29 6b 04             	sub    %ebp,0x4(%rbx)
  40234e:	4c 89 e0             	mov    %r12,%rax
  402351:	eb 0e                	jmp    402361 <rio_read+0x80>
  402353:	48 c7 c0 ff ff ff ff 	mov    $0xffffffffffffffff,%rax
  40235a:	eb 05                	jmp    402361 <rio_read+0x80>
  40235c:	b8 00 00 00 00       	mov    $0x0,%eax
  402361:	48 83 c4 08          	add    $0x8,%rsp
  402365:	5b                   	pop    %rbx
  402366:	5d                   	pop    %rbp
  402367:	41 5c                	pop    %r12
  402369:	41 5d                	pop    %r13
  40236b:	c3                   	ret    

000000000040236c <rio_readlineb>:
  40236c:	41 55                	push   %r13
  40236e:	41 54                	push   %r12
  402370:	55                   	push   %rbp
  402371:	53                   	push   %rbx
  402372:	48 83 ec 18          	sub    $0x18,%rsp
  402376:	49 89 fd             	mov    %rdi,%r13
  402379:	48 89 f5             	mov    %rsi,%rbp
  40237c:	49 89 d4             	mov    %rdx,%r12
  40237f:	64 48 8b 04 25 28 00 	mov    %fs:0x28,%rax
  402386:	00 00 
  402388:	48 89 44 24 08       	mov    %rax,0x8(%rsp)
  40238d:	31 c0                	xor    %eax,%eax
  40238f:	bb 01 00 00 00       	mov    $0x1,%ebx
  402394:	eb 3f                	jmp    4023d5 <rio_readlineb+0x69>
  402396:	ba 01 00 00 00       	mov    $0x1,%edx
  40239b:	48 8d 74 24 07       	lea    0x7(%rsp),%rsi
  4023a0:	4c 89 ef             	mov    %r13,%rdi
  4023a3:	e8 39 ff ff ff       	call   4022e1 <rio_read>
  4023a8:	83 f8 01             	cmp    $0x1,%eax
  4023ab:	75 15                	jne    4023c2 <rio_readlineb+0x56>
  4023ad:	48 8d 45 01          	lea    0x1(%rbp),%rax
  4023b1:	0f b6 54 24 07       	movzbl 0x7(%rsp),%edx
  4023b6:	88 55 00             	mov    %dl,0x0(%rbp)
  4023b9:	80 7c 24 07 0a       	cmpb   $0xa,0x7(%rsp)
  4023be:	75 0e                	jne    4023ce <rio_readlineb+0x62>
  4023c0:	eb 1a                	jmp    4023dc <rio_readlineb+0x70>
  4023c2:	85 c0                	test   %eax,%eax
  4023c4:	75 22                	jne    4023e8 <rio_readlineb+0x7c>
  4023c6:	48 83 fb 01          	cmp    $0x1,%rbx
  4023ca:	75 13                	jne    4023df <rio_readlineb+0x73>
  4023cc:	eb 23                	jmp    4023f1 <rio_readlineb+0x85>
  4023ce:	48 83 c3 01          	add    $0x1,%rbx
  4023d2:	48 89 c5             	mov    %rax,%rbp
  4023d5:	4c 39 e3             	cmp    %r12,%rbx
  4023d8:	72 bc                	jb     402396 <rio_readlineb+0x2a>
  4023da:	eb 03                	jmp    4023df <rio_readlineb+0x73>
  4023dc:	48 89 c5             	mov    %rax,%rbp
  4023df:	c6 45 00 00          	movb   $0x0,0x0(%rbp)
  4023e3:	48 89 d8             	mov    %rbx,%rax
  4023e6:	eb 0e                	jmp    4023f6 <rio_readlineb+0x8a>
  4023e8:	48 c7 c0 ff ff ff ff 	mov    $0xffffffffffffffff,%rax
  4023ef:	eb 05                	jmp    4023f6 <rio_readlineb+0x8a>
  4023f1:	b8 00 00 00 00       	mov    $0x0,%eax
  4023f6:	48 8b 4c 24 08       	mov    0x8(%rsp),%rcx
  4023fb:	64 48 33 0c 25 28 00 	xor    %fs:0x28,%rcx
  402402:	00 00 
  402404:	74 05                	je     40240b <rio_readlineb+0x9f>
  402406:	e8 e5 e8 ff ff       	call   400cf0 <__stack_chk_fail@plt>
  40240b:	48 83 c4 18          	add    $0x18,%rsp
  40240f:	5b                   	pop    %rbx
  402410:	5d                   	pop    %rbp
  402411:	41 5c                	pop    %r12
  402413:	41 5d                	pop    %r13
  402415:	c3                   	ret    

0000000000402416 <urlencode>:
  402416:	41 54                	push   %r12
  402418:	55                   	push   %rbp
  402419:	53                   	push   %rbx
  40241a:	48 83 ec 10          	sub    $0x10,%rsp
  40241e:	48 89 fb             	mov    %rdi,%rbx
  402421:	48 89 f5             	mov    %rsi,%rbp
  402424:	64 48 8b 04 25 28 00 	mov    %fs:0x28,%rax
  40242b:	00 00 
  40242d:	48 89 44 24 08       	mov    %rax,0x8(%rsp)
  402432:	31 c0                	xor    %eax,%eax
  402434:	48 c7 c1 ff ff ff ff 	mov    $0xffffffffffffffff,%rcx
  40243b:	f2 ae                	repnz scas %es:(%rdi),%al
  40243d:	48 f7 d1             	not    %rcx
  402440:	8d 41 ff             	lea    -0x1(%rcx),%eax
  402443:	e9 aa 00 00 00       	jmp    4024f2 <urlencode+0xdc>
  402448:	44 0f b6 03          	movzbl (%rbx),%r8d
  40244c:	41 80 f8 2a          	cmp    $0x2a,%r8b
  402450:	0f 94 c2             	sete   %dl
  402453:	41 80 f8 2d          	cmp    $0x2d,%r8b
  402457:	0f 94 c0             	sete   %al
  40245a:	08 c2                	or     %al,%dl
  40245c:	75 24                	jne    402482 <urlencode+0x6c>
  40245e:	41 80 f8 2e          	cmp    $0x2e,%r8b
  402462:	74 1e                	je     402482 <urlencode+0x6c>
  402464:	41 80 f8 5f          	cmp    $0x5f,%r8b
  402468:	74 18                	je     402482 <urlencode+0x6c>
  40246a:	41 8d 40 d0          	lea    -0x30(%r8),%eax
  40246e:	3c 09                	cmp    $0x9,%al
  402470:	76 10                	jbe    402482 <urlencode+0x6c>
  402472:	41 8d 40 bf          	lea    -0x41(%r8),%eax
  402476:	3c 19                	cmp    $0x19,%al
  402478:	76 08                	jbe    402482 <urlencode+0x6c>
  40247a:	41 8d 40 9f          	lea    -0x61(%r8),%eax
  40247e:	3c 19                	cmp    $0x19,%al
  402480:	77 0a                	ja     40248c <urlencode+0x76>
  402482:	44 88 45 00          	mov    %r8b,0x0(%rbp)
  402486:	48 8d 6d 01          	lea    0x1(%rbp),%rbp
  40248a:	eb 5f                	jmp    4024eb <urlencode+0xd5>
  40248c:	41 80 f8 20          	cmp    $0x20,%r8b
  402490:	75 0a                	jne    40249c <urlencode+0x86>
  402492:	c6 45 00 2b          	movb   $0x2b,0x0(%rbp)
  402496:	48 8d 6d 01          	lea    0x1(%rbp),%rbp
  40249a:	eb 4f                	jmp    4024eb <urlencode+0xd5>
  40249c:	41 8d 40 e0          	lea    -0x20(%r8),%eax
  4024a0:	3c 5f                	cmp    $0x5f,%al
  4024a2:	0f 96 c2             	setbe  %dl
  4024a5:	41 80 f8 09          	cmp    $0x9,%r8b
  4024a9:	0f 94 c0             	sete   %al
  4024ac:	08 c2                	or     %al,%dl
  4024ae:	74 50                	je     402500 <urlencode+0xea>
  4024b0:	45 0f b6 c0          	movzbl %r8b,%r8d
  4024b4:	b9 d8 38 40 00       	mov    $0x4038d8,%ecx
  4024b9:	ba 08 00 00 00       	mov    $0x8,%edx
  4024be:	be 01 00 00 00       	mov    $0x1,%esi
  4024c3:	48 89 e7             	mov    %rsp,%rdi
  4024c6:	b8 00 00 00 00       	mov    $0x0,%eax
  4024cb:	e8 b0 e9 ff ff       	call   400e80 <__sprintf_chk@plt>
  4024d0:	0f b6 04 24          	movzbl (%rsp),%eax
  4024d4:	88 45 00             	mov    %al,0x0(%rbp)
  4024d7:	0f b6 44 24 01       	movzbl 0x1(%rsp),%eax
  4024dc:	88 45 01             	mov    %al,0x1(%rbp)
  4024df:	0f b6 44 24 02       	movzbl 0x2(%rsp),%eax
  4024e4:	88 45 02             	mov    %al,0x2(%rbp)
  4024e7:	48 8d 6d 03          	lea    0x3(%rbp),%rbp
  4024eb:	48 83 c3 01          	add    $0x1,%rbx
  4024ef:	44 89 e0             	mov    %r12d,%eax
  4024f2:	44 8d 60 ff          	lea    -0x1(%rax),%r12d
  4024f6:	85 c0                	test   %eax,%eax
  4024f8:	0f 85 4a ff ff ff    	jne    402448 <urlencode+0x32>
  4024fe:	eb 05                	jmp    402505 <urlencode+0xef>
  402500:	b8 ff ff ff ff       	mov    $0xffffffff,%eax
  402505:	48 8b 74 24 08       	mov    0x8(%rsp),%rsi
  40250a:	64 48 33 34 25 28 00 	xor    %fs:0x28,%rsi
  402511:	00 00 
  402513:	74 05                	je     40251a <urlencode+0x104>
  402515:	e8 d6 e7 ff ff       	call   400cf0 <__stack_chk_fail@plt>
  40251a:	48 83 c4 10          	add    $0x10,%rsp
  40251e:	5b                   	pop    %rbx
  40251f:	5d                   	pop    %rbp
  402520:	41 5c                	pop    %r12
  402522:	c3                   	ret    

0000000000402523 <submitr>:
  402523:	41 57                	push   %r15
  402525:	41 56                	push   %r14
  402527:	41 55                	push   %r13
  402529:	41 54                	push   %r12
  40252b:	55                   	push   %rbp
  40252c:	53                   	push   %rbx
  40252d:	48 81 ec 58 a0 00 00 	sub    $0xa058,%rsp
  402534:	49 89 fc             	mov    %rdi,%r12
  402537:	89 74 24 04          	mov    %esi,0x4(%rsp)
  40253b:	49 89 d7             	mov    %rdx,%r15
  40253e:	49 89 ce             	mov    %rcx,%r14
  402541:	4c 89 44 24 08       	mov    %r8,0x8(%rsp)
  402546:	4d 89 cd             	mov    %r9,%r13
  402549:	48 8b 9c 24 90 a0 00 	mov    0xa090(%rsp),%rbx
  402550:	00 
  402551:	64 48 8b 04 25 28 00 	mov    %fs:0x28,%rax
  402558:	00 00 
  40255a:	48 89 84 24 48 a0 00 	mov    %rax,0xa048(%rsp)
  402561:	00 
  402562:	31 c0                	xor    %eax,%eax
  402564:	c7 44 24 1c 00 00 00 	movl   $0x0,0x1c(%rsp)
  40256b:	00 
  40256c:	ba 00 00 00 00       	mov    $0x0,%edx
  402571:	be 01 00 00 00       	mov    $0x1,%esi
  402576:	bf 02 00 00 00       	mov    $0x2,%edi
  40257b:	e8 10 e9 ff ff       	call   400e90 <socket@plt>
  402580:	85 c0                	test   %eax,%eax
  402582:	79 4e                	jns    4025d2 <submitr+0xaf>
  402584:	48 b8 45 72 72 6f 72 	movabs $0x43203a726f727245,%rax
  40258b:	3a 20 43 
  40258e:	48 89 03             	mov    %rax,(%rbx)
  402591:	48 b8 6c 69 65 6e 74 	movabs $0x6e7520746e65696c,%rax
  402598:	20 75 6e 
  40259b:	48 89 43 08          	mov    %rax,0x8(%rbx)
  40259f:	48 b8 61 62 6c 65 20 	movabs $0x206f7420656c6261,%rax
  4025a6:	74 6f 20 
  4025a9:	48 89 43 10          	mov    %rax,0x10(%rbx)
  4025ad:	48 b8 63 72 65 61 74 	movabs $0x7320657461657263,%rax
  4025b4:	65 20 73 
  4025b7:	48 89 43 18          	mov    %rax,0x18(%rbx)
  4025bb:	c7 43 20 6f 63 6b 65 	movl   $0x656b636f,0x20(%rbx)
  4025c2:	66 c7 43 24 74 00    	movw   $0x74,0x24(%rbx)
  4025c8:	b8 ff ff ff ff       	mov    $0xffffffff,%eax
  4025cd:	e9 97 06 00 00       	jmp    402c69 <submitr+0x746>
  4025d2:	89 c5                	mov    %eax,%ebp
  4025d4:	4c 89 e7             	mov    %r12,%rdi
  4025d7:	e8 94 e7 ff ff       	call   400d70 <gethostbyname@plt>
  4025dc:	48 85 c0             	test   %rax,%rax
  4025df:	75 67                	jne    402648 <submitr+0x125>
  4025e1:	48 b8 45 72 72 6f 72 	movabs $0x44203a726f727245,%rax
  4025e8:	3a 20 44 
  4025eb:	48 89 03             	mov    %rax,(%rbx)
  4025ee:	48 b8 4e 53 20 69 73 	movabs $0x6e7520736920534e,%rax
  4025f5:	20 75 6e 
  4025f8:	48 89 43 08          	mov    %rax,0x8(%rbx)
  4025fc:	48 b8 61 62 6c 65 20 	movabs $0x206f7420656c6261,%rax
  402603:	74 6f 20 
  402606:	48 89 43 10          	mov    %rax,0x10(%rbx)
  40260a:	48 b8 72 65 73 6f 6c 	movabs $0x2065766c6f736572,%rax
  402611:	76 65 20 
  402614:	48 89 43 18          	mov    %rax,0x18(%rbx)
  402618:	48 b8 73 65 72 76 65 	movabs $0x6120726576726573,%rax
  40261f:	72 20 61 
  402622:	48 89 43 20          	mov    %rax,0x20(%rbx)
  402626:	c7 43 28 64 64 72 65 	movl   $0x65726464,0x28(%rbx)
  40262d:	66 c7 43 2c 73 73    	movw   $0x7373,0x2c(%rbx)
  402633:	c6 43 2e 00          	movb   $0x0,0x2e(%rbx)
  402637:	89 ef                	mov    %ebp,%edi
  402639:	e8 f2 e6 ff ff       	call   400d30 <close@plt>
  40263e:	b8 ff ff ff ff       	mov    $0xffffffff,%eax
  402643:	e9 21 06 00 00       	jmp    402c69 <submitr+0x746>
  402648:	48 c7 44 24 20 00 00 	movq   $0x0,0x20(%rsp)
  40264f:	00 00 
  402651:	48 c7 44 24 28 00 00 	movq   $0x0,0x28(%rsp)
  402658:	00 00 
  40265a:	66 c7 44 24 20 02 00 	movw   $0x2,0x20(%rsp)
  402661:	48 63 50 14          	movslq 0x14(%rax),%rdx
  402665:	48 8b 40 18          	mov    0x18(%rax),%rax
  402669:	48 8b 30             	mov    (%rax),%rsi
  40266c:	48 8d 7c 24 24       	lea    0x24(%rsp),%rdi
  402671:	b9 0c 00 00 00       	mov    $0xc,%ecx
  402676:	e8 05 e7 ff ff       	call   400d80 <__memmove_chk@plt>
  40267b:	0f b7 44 24 04       	movzwl 0x4(%rsp),%eax
  402680:	66 c1 c8 08          	ror    $0x8,%ax
  402684:	66 89 44 24 22       	mov    %ax,0x22(%rsp)
  402689:	ba 10 00 00 00       	mov    $0x10,%edx
  40268e:	48 8d 74 24 20       	lea    0x20(%rsp),%rsi
  402693:	89 ef                	mov    %ebp,%edi
  402695:	e8 c6 e7 ff ff       	call   400e60 <connect@plt>
  40269a:	85 c0                	test   %eax,%eax
  40269c:	79 59                	jns    4026f7 <submitr+0x1d4>
  40269e:	48 b8 45 72 72 6f 72 	movabs $0x55203a726f727245,%rax
  4026a5:	3a 20 55 
  4026a8:	48 89 03             	mov    %rax,(%rbx)
  4026ab:	48 b8 6e 61 62 6c 65 	movabs $0x6f7420656c62616e,%rax
  4026b2:	20 74 6f 
  4026b5:	48 89 43 08          	mov    %rax,0x8(%rbx)
  4026b9:	48 b8 20 63 6f 6e 6e 	movabs $0x7463656e6e6f6320,%rax
  4026c0:	65 63 74 
  4026c3:	48 89 43 10          	mov    %rax,0x10(%rbx)
  4026c7:	48 b8 20 74 6f 20 74 	movabs $0x20656874206f7420,%rax
  4026ce:	68 65 20 
  4026d1:	48 89 43 18          	mov    %rax,0x18(%rbx)
  4026d5:	c7 43 20 73 65 72 76 	movl   $0x76726573,0x20(%rbx)
  4026dc:	66 c7 43 24 65 72    	movw   $0x7265,0x24(%rbx)
  4026e2:	c6 43 26 00          	movb   $0x0,0x26(%rbx)
  4026e6:	89 ef                	mov    %ebp,%edi
  4026e8:	e8 43 e6 ff ff       	call   400d30 <close@plt>
  4026ed:	b8 ff ff ff ff       	mov    $0xffffffff,%eax
  4026f2:	e9 72 05 00 00       	jmp    402c69 <submitr+0x746>
  4026f7:	48 c7 c6 ff ff ff ff 	mov    $0xffffffffffffffff,%rsi
  4026fe:	b8 00 00 00 00       	mov    $0x0,%eax
  402703:	48 89 f1             	mov    %rsi,%rcx
  402706:	4c 89 ef             	mov    %r13,%rdi
  402709:	f2 ae                	repnz scas %es:(%rdi),%al
  40270b:	48 f7 d1             	not    %rcx
  40270e:	48 89 ca             	mov    %rcx,%rdx
  402711:	48 89 f1             	mov    %rsi,%rcx
  402714:	4c 89 ff             	mov    %r15,%rdi
  402717:	f2 ae                	repnz scas %es:(%rdi),%al
  402719:	48 f7 d1             	not    %rcx
  40271c:	49 89 c8             	mov    %rcx,%r8
  40271f:	48 89 f1             	mov    %rsi,%rcx
  402722:	4c 89 f7             	mov    %r14,%rdi
  402725:	f2 ae                	repnz scas %es:(%rdi),%al
  402727:	48 f7 d1             	not    %rcx
  40272a:	4d 8d 44 08 fe       	lea    -0x2(%r8,%rcx,1),%r8
  40272f:	48 89 f1             	mov    %rsi,%rcx
  402732:	48 8b 7c 24 08       	mov    0x8(%rsp),%rdi
  402737:	f2 ae                	repnz scas %es:(%rdi),%al
  402739:	48 89 c8             	mov    %rcx,%rax
  40273c:	48 f7 d0             	not    %rax
  40273f:	49 8d 4c 00 ff       	lea    -0x1(%r8,%rax,1),%rcx
  402744:	48 8d 44 52 fd       	lea    -0x3(%rdx,%rdx,2),%rax
  402749:	48 8d 84 01 80 00 00 	lea    0x80(%rcx,%rax,1),%rax
  402750:	00 
  402751:	48 3d 00 20 00 00    	cmp    $0x2000,%rax
  402757:	76 72                	jbe    4027cb <submitr+0x2a8>
  402759:	48 b8 45 72 72 6f 72 	movabs $0x52203a726f727245,%rax
  402760:	3a 20 52 
  402763:	48 89 03             	mov    %rax,(%rbx)
  402766:	48 b8 65 73 75 6c 74 	movabs $0x747320746c757365,%rax
  40276d:	20 73 74 
  402770:	48 89 43 08          	mov    %rax,0x8(%rbx)
  402774:	48 b8 72 69 6e 67 20 	movabs $0x6f6f7420676e6972,%rax
  40277b:	74 6f 6f 
  40277e:	48 89 43 10          	mov    %rax,0x10(%rbx)
  402782:	48 b8 20 6c 61 72 67 	movabs $0x202e656772616c20,%rax
  402789:	65 2e 20 
  40278c:	48 89 43 18          	mov    %rax,0x18(%rbx)
  402790:	48 b8 49 6e 63 72 65 	movabs $0x6573616572636e49,%rax
  402797:	61 73 65 
  40279a:	48 89 43 20          	mov    %rax,0x20(%rbx)
  40279e:	48 b8 20 53 55 42 4d 	movabs $0x5254494d42555320,%rax
  4027a5:	49 54 52 
  4027a8:	48 89 43 28          	mov    %rax,0x28(%rbx)
  4027ac:	48 b8 5f 4d 41 58 42 	movabs $0x46554258414d5f,%rax
  4027b3:	55 46 00 
  4027b6:	48 89 43 30          	mov    %rax,0x30(%rbx)
  4027ba:	89 ef                	mov    %ebp,%edi
  4027bc:	e8 6f e5 ff ff       	call   400d30 <close@plt>
  4027c1:	b8 ff ff ff ff       	mov    $0xffffffff,%eax
  4027c6:	e9 9e 04 00 00       	jmp    402c69 <submitr+0x746>
  4027cb:	48 8d b4 24 40 40 00 	lea    0x4040(%rsp),%rsi
  4027d2:	00 
  4027d3:	b9 00 04 00 00       	mov    $0x400,%ecx
  4027d8:	b8 00 00 00 00       	mov    $0x0,%eax
  4027dd:	48 89 f7             	mov    %rsi,%rdi
  4027e0:	f3 48 ab             	rep stos %rax,%es:(%rdi)
  4027e3:	4c 89 ef             	mov    %r13,%rdi
  4027e6:	e8 2b fc ff ff       	call   402416 <urlencode>
  4027eb:	85 c0                	test   %eax,%eax
  4027ed:	0f 89 8a 00 00 00    	jns    40287d <submitr+0x35a>
  4027f3:	48 b8 45 72 72 6f 72 	movabs $0x52203a726f727245,%rax
  4027fa:	3a 20 52 
  4027fd:	48 89 03             	mov    %rax,(%rbx)
  402800:	48 b8 65 73 75 6c 74 	movabs $0x747320746c757365,%rax
  402807:	20 73 74 
  40280a:	48 89 43 08          	mov    %rax,0x8(%rbx)
  40280e:	48 b8 72 69 6e 67 20 	movabs $0x6e6f6320676e6972,%rax
  402815:	63 6f 6e 
  402818:	48 89 43 10          	mov    %rax,0x10(%rbx)
  40281c:	48 b8 74 61 69 6e 73 	movabs $0x6e6120736e696174,%rax
  402823:	20 61 6e 
  402826:	48 89 43 18          	mov    %rax,0x18(%rbx)
  40282a:	48 b8 20 69 6c 6c 65 	movabs $0x6c6167656c6c6920,%rax
  402831:	67 61 6c 
  402834:	48 89 43 20          	mov    %rax,0x20(%rbx)
  402838:	48 b8 20 6f 72 20 75 	movabs $0x72706e7520726f20,%rax
  40283f:	6e 70 72 
  402842:	48 89 43 28          	mov    %rax,0x28(%rbx)
  402846:	48 b8 69 6e 74 61 62 	movabs $0x20656c6261746e69,%rax
  40284d:	6c 65 20 
  402850:	48 89 43 30          	mov    %rax,0x30(%rbx)
  402854:	48 b8 63 68 61 72 61 	movabs $0x6574636172616863,%rax
  40285b:	63 74 65 
  40285e:	48 89 43 38          	mov    %rax,0x38(%rbx)
  402862:	66 c7 43 40 72 2e    	movw   $0x2e72,0x40(%rbx)
  402868:	c6 43 42 00          	movb   $0x0,0x42(%rbx)
  40286c:	89 ef                	mov    %ebp,%edi
  40286e:	e8 bd e4 ff ff       	call   400d30 <close@plt>
  402873:	b8 ff ff ff ff       	mov    $0xffffffff,%eax
  402878:	e9 ec 03 00 00       	jmp    402c69 <submitr+0x746>
  40287d:	4c 8d ac 24 40 20 00 	lea    0x2040(%rsp),%r13
  402884:	00 
  402885:	41 54                	push   %r12
  402887:	48 8d 84 24 48 40 00 	lea    0x4048(%rsp),%rax
  40288e:	00 
  40288f:	50                   	push   %rax
  402890:	4d 89 f9             	mov    %r15,%r9
  402893:	4d 89 f0             	mov    %r14,%r8
  402896:	b9 68 38 40 00       	mov    $0x403868,%ecx
  40289b:	ba 00 20 00 00       	mov    $0x2000,%edx
  4028a0:	be 01 00 00 00       	mov    $0x1,%esi
  4028a5:	4c 89 ef             	mov    %r13,%rdi
  4028a8:	b8 00 00 00 00       	mov    $0x0,%eax
  4028ad:	e8 ce e5 ff ff       	call   400e80 <__sprintf_chk@plt>
  4028b2:	b8 00 00 00 00       	mov    $0x0,%eax
  4028b7:	48 c7 c1 ff ff ff ff 	mov    $0xffffffffffffffff,%rcx
  4028be:	4c 89 ef             	mov    %r13,%rdi
  4028c1:	f2 ae                	repnz scas %es:(%rdi),%al
  4028c3:	48 f7 d1             	not    %rcx
  4028c6:	48 8d 51 ff          	lea    -0x1(%rcx),%rdx
  4028ca:	4c 89 ee             	mov    %r13,%rsi
  4028cd:	89 ef                	mov    %ebp,%edi
  4028cf:	e8 b1 f9 ff ff       	call   402285 <rio_writen>
  4028d4:	48 83 c4 10          	add    $0x10,%rsp
  4028d8:	48 85 c0             	test   %rax,%rax
  4028db:	79 6e                	jns    40294b <submitr+0x428>
  4028dd:	48 b8 45 72 72 6f 72 	movabs $0x43203a726f727245,%rax
  4028e4:	3a 20 43 
  4028e7:	48 89 03             	mov    %rax,(%rbx)
  4028ea:	48 b8 6c 69 65 6e 74 	movabs $0x6e7520746e65696c,%rax
  4028f1:	20 75 6e 
  4028f4:	48 89 43 08          	mov    %rax,0x8(%rbx)
  4028f8:	48 b8 61 62 6c 65 20 	movabs $0x206f7420656c6261,%rax
  4028ff:	74 6f 20 
  402902:	48 89 43 10          	mov    %rax,0x10(%rbx)
  402906:	48 b8 77 72 69 74 65 	movabs $0x6f74206574697277,%rax
  40290d:	20 74 6f 
  402910:	48 89 43 18          	mov    %rax,0x18(%rbx)
  402914:	48 b8 20 74 68 65 20 	movabs $0x7365722065687420,%rax
  40291b:	72 65 73 
  40291e:	48 89 43 20          	mov    %rax,0x20(%rbx)
  402922:	48 b8 75 6c 74 20 73 	movabs $0x7672657320746c75,%rax
  402929:	65 72 76 
  40292c:	48 89 43 28          	mov    %rax,0x28(%rbx)
  402930:	66 c7 43 30 65 72    	movw   $0x7265,0x30(%rbx)
  402936:	c6 43 32 00          	movb   $0x0,0x32(%rbx)
  40293a:	89 ef                	mov    %ebp,%edi
  40293c:	e8 ef e3 ff ff       	call   400d30 <close@plt>
  402941:	b8 ff ff ff ff       	mov    $0xffffffff,%eax
  402946:	e9 1e 03 00 00       	jmp    402c69 <submitr+0x746>
  40294b:	89 ee                	mov    %ebp,%esi
  40294d:	48 8d 7c 24 30       	lea    0x30(%rsp),%rdi
  402952:	e8 ee f8 ff ff       	call   402245 <rio_readinitb>
  402957:	ba 00 20 00 00       	mov    $0x2000,%edx
  40295c:	48 8d b4 24 40 20 00 	lea    0x2040(%rsp),%rsi
  402963:	00 
  402964:	48 8d 7c 24 30       	lea    0x30(%rsp),%rdi
  402969:	e8 fe f9 ff ff       	call   40236c <rio_readlineb>
  40296e:	48 85 c0             	test   %rax,%rax
  402971:	7f 7d                	jg     4029f0 <submitr+0x4cd>
  402973:	48 b8 45 72 72 6f 72 	movabs $0x43203a726f727245,%rax
  40297a:	3a 20 43 
  40297d:	48 89 03             	mov    %rax,(%rbx)
  402980:	48 b8 6c 69 65 6e 74 	movabs $0x6e7520746e65696c,%rax
  402987:	20 75 6e 
  40298a:	48 89 43 08          	mov    %rax,0x8(%rbx)
  40298e:	48 b8 61 62 6c 65 20 	movabs $0x206f7420656c6261,%rax
  402995:	74 6f 20 
  402998:	48 89 43 10          	mov    %rax,0x10(%rbx)
  40299c:	48 b8 72 65 61 64 20 	movabs $0x7269662064616572,%rax
  4029a3:	66 69 72 
  4029a6:	48 89 43 18          	mov    %rax,0x18(%rbx)
  4029aa:	48 b8 73 74 20 68 65 	movabs $0x6564616568207473,%rax
  4029b1:	61 64 65 
  4029b4:	48 89 43 20          	mov    %rax,0x20(%rbx)
  4029b8:	48 b8 72 20 66 72 6f 	movabs $0x72206d6f72662072,%rax
  4029bf:	6d 20 72 
  4029c2:	48 89 43 28          	mov    %rax,0x28(%rbx)
  4029c6:	48 b8 65 73 75 6c 74 	movabs $0x657320746c757365,%rax
  4029cd:	20 73 65 
  4029d0:	48 89 43 30          	mov    %rax,0x30(%rbx)
  4029d4:	c7 43 38 72 76 65 72 	movl   $0x72657672,0x38(%rbx)
  4029db:	c6 43 3c 00          	movb   $0x0,0x3c(%rbx)
  4029df:	89 ef                	mov    %ebp,%edi
  4029e1:	e8 4a e3 ff ff       	call   400d30 <close@plt>
  4029e6:	b8 ff ff ff ff       	mov    $0xffffffff,%eax
  4029eb:	e9 79 02 00 00       	jmp    402c69 <submitr+0x746>
  4029f0:	4c 8d 84 24 40 80 00 	lea    0x8040(%rsp),%r8
  4029f7:	00 
  4029f8:	48 8d 4c 24 1c       	lea    0x1c(%rsp),%rcx
  4029fd:	48 8d 94 24 40 60 00 	lea    0x6040(%rsp),%rdx
  402a04:	00 
  402a05:	be df 38 40 00       	mov    $0x4038df,%esi
  402a0a:	48 8d bc 24 40 20 00 	lea    0x2040(%rsp),%rdi
  402a11:	00 
  402a12:	b8 00 00 00 00       	mov    $0x0,%eax
  402a17:	e8 c4 e3 ff ff       	call   400de0 <__isoc99_sscanf@plt>
  402a1c:	e9 95 00 00 00       	jmp    402ab6 <submitr+0x593>
  402a21:	ba 00 20 00 00       	mov    $0x2000,%edx
  402a26:	48 8d b4 24 40 20 00 	lea    0x2040(%rsp),%rsi
  402a2d:	00 
  402a2e:	48 8d 7c 24 30       	lea    0x30(%rsp),%rdi
  402a33:	e8 34 f9 ff ff       	call   40236c <rio_readlineb>
  402a38:	48 85 c0             	test   %rax,%rax
  402a3b:	7f 79                	jg     402ab6 <submitr+0x593>
  402a3d:	48 b8 45 72 72 6f 72 	movabs $0x43203a726f727245,%rax
  402a44:	3a 20 43 
  402a47:	48 89 03             	mov    %rax,(%rbx)
  402a4a:	48 b8 6c 69 65 6e 74 	movabs $0x6e7520746e65696c,%rax
  402a51:	20 75 6e 
  402a54:	48 89 43 08          	mov    %rax,0x8(%rbx)
  402a58:	48 b8 61 62 6c 65 20 	movabs $0x206f7420656c6261,%rax
  402a5f:	74 6f 20 
  402a62:	48 89 43 10          	mov    %rax,0x10(%rbx)
  402a66:	48 b8 72 65 61 64 20 	movabs $0x6165682064616572,%rax
  402a6d:	68 65 61 
  402a70:	48 89 43 18          	mov    %rax,0x18(%rbx)
  402a74:	48 b8 64 65 72 73 20 	movabs $0x6f72662073726564,%rax
  402a7b:	66 72 6f 
  402a7e:	48 89 43 20          	mov    %rax,0x20(%rbx)
  402a82:	48 b8 6d 20 74 68 65 	movabs $0x657220656874206d,%rax
  402a89:	20 72 65 
  402a8c:	48 89 43 28          	mov    %rax,0x28(%rbx)
  402a90:	48 b8 73 75 6c 74 20 	movabs $0x72657320746c7573,%rax
  402a97:	73 65 72 
  402a9a:	48 89 43 30          	mov    %rax,0x30(%rbx)
  402a9e:	c7 43 38 76 65 72 00 	movl   $0x726576,0x38(%rbx)
  402aa5:	89 ef                	mov    %ebp,%edi
  402aa7:	e8 84 e2 ff ff       	call   400d30 <close@plt>
  402aac:	b8 ff ff ff ff       	mov    $0xffffffff,%eax
  402ab1:	e9 b3 01 00 00       	jmp    402c69 <submitr+0x746>
  402ab6:	0f b6 94 24 40 20 00 	movzbl 0x2040(%rsp),%edx
  402abd:	00 
  402abe:	b8 0d 00 00 00       	mov    $0xd,%eax
  402ac3:	29 d0                	sub    %edx,%eax
  402ac5:	75 1b                	jne    402ae2 <submitr+0x5bf>
  402ac7:	0f b6 94 24 41 20 00 	movzbl 0x2041(%rsp),%edx
  402ace:	00 
  402acf:	b8 0a 00 00 00       	mov    $0xa,%eax
  402ad4:	29 d0                	sub    %edx,%eax
  402ad6:	75 0a                	jne    402ae2 <submitr+0x5bf>
  402ad8:	0f b6 84 24 42 20 00 	movzbl 0x2042(%rsp),%eax
  402adf:	00 
  402ae0:	f7 d8                	neg    %eax
  402ae2:	85 c0                	test   %eax,%eax
  402ae4:	0f 85 37 ff ff ff    	jne    402a21 <submitr+0x4fe>
  402aea:	ba 00 20 00 00       	mov    $0x2000,%edx
  402aef:	48 8d b4 24 40 20 00 	lea    0x2040(%rsp),%rsi
  402af6:	00 
  402af7:	48 8d 7c 24 30       	lea    0x30(%rsp),%rdi
  402afc:	e8 6b f8 ff ff       	call   40236c <rio_readlineb>
  402b01:	48 85 c0             	test   %rax,%rax
  402b04:	0f 8f 83 00 00 00    	jg     402b8d <submitr+0x66a>
  402b0a:	48 b8 45 72 72 6f 72 	movabs $0x43203a726f727245,%rax
  402b11:	3a 20 43 
  402b14:	48 89 03             	mov    %rax,(%rbx)
  402b17:	48 b8 6c 69 65 6e 74 	movabs $0x6e7520746e65696c,%rax
  402b1e:	20 75 6e 
  402b21:	48 89 43 08          	mov    %rax,0x8(%rbx)
  402b25:	48 b8 61 62 6c 65 20 	movabs $0x206f7420656c6261,%rax
  402b2c:	74 6f 20 
  402b2f:	48 89 43 10          	mov    %rax,0x10(%rbx)
  402b33:	48 b8 72 65 61 64 20 	movabs $0x6174732064616572,%rax
  402b3a:	73 74 61 
  402b3d:	48 89 43 18          	mov    %rax,0x18(%rbx)
  402b41:	48 b8 74 75 73 20 6d 	movabs $0x7373656d20737574,%rax
  402b48:	65 73 73 
  402b4b:	48 89 43 20          	mov    %rax,0x20(%rbx)
  402b4f:	48 b8 61 67 65 20 66 	movabs $0x6d6f726620656761,%rax
  402b56:	72 6f 6d 
  402b59:	48 89 43 28          	mov    %rax,0x28(%rbx)
  402b5d:	48 b8 20 72 65 73 75 	movabs $0x20746c7573657220,%rax
  402b64:	6c 74 20 
  402b67:	48 89 43 30          	mov    %rax,0x30(%rbx)
  402b6b:	c7 43 38 73 65 72 76 	movl   $0x76726573,0x38(%rbx)
  402b72:	66 c7 43 3c 65 72    	movw   $0x7265,0x3c(%rbx)
  402b78:	c6 43 3e 00          	movb   $0x0,0x3e(%rbx)
  402b7c:	89 ef                	mov    %ebp,%edi
  402b7e:	e8 ad e1 ff ff       	call   400d30 <close@plt>
  402b83:	b8 ff ff ff ff       	mov    $0xffffffff,%eax
  402b88:	e9 dc 00 00 00       	jmp    402c69 <submitr+0x746>
  402b8d:	44 8b 44 24 1c       	mov    0x1c(%rsp),%r8d
  402b92:	41 81 f8 c8 00 00 00 	cmp    $0xc8,%r8d
  402b99:	74 37                	je     402bd2 <submitr+0x6af>
  402b9b:	4c 8d 8c 24 40 80 00 	lea    0x8040(%rsp),%r9
  402ba2:	00 
  402ba3:	b9 a8 38 40 00       	mov    $0x4038a8,%ecx
  402ba8:	48 c7 c2 ff ff ff ff 	mov    $0xffffffffffffffff,%rdx
  402baf:	be 01 00 00 00       	mov    $0x1,%esi
  402bb4:	48 89 df             	mov    %rbx,%rdi
  402bb7:	b8 00 00 00 00       	mov    $0x0,%eax
  402bbc:	e8 bf e2 ff ff       	call   400e80 <__sprintf_chk@plt>
  402bc1:	89 ef                	mov    %ebp,%edi
  402bc3:	e8 68 e1 ff ff       	call   400d30 <close@plt>
  402bc8:	b8 ff ff ff ff       	mov    $0xffffffff,%eax
  402bcd:	e9 97 00 00 00       	jmp    402c69 <submitr+0x746>
  402bd2:	48 8d b4 24 40 20 00 	lea    0x2040(%rsp),%rsi
  402bd9:	00 
  402bda:	48 89 df             	mov    %rbx,%rdi
  402bdd:	e8 de e0 ff ff       	call   400cc0 <strcpy@plt>
  402be2:	89 ef                	mov    %ebp,%edi
  402be4:	e8 47 e1 ff ff       	call   400d30 <close@plt>
  402be9:	0f b6 03             	movzbl (%rbx),%eax
  402bec:	ba 4f 00 00 00       	mov    $0x4f,%edx
  402bf1:	29 c2                	sub    %eax,%edx
  402bf3:	75 22                	jne    402c17 <submitr+0x6f4>
  402bf5:	0f b6 4b 01          	movzbl 0x1(%rbx),%ecx
  402bf9:	b8 4b 00 00 00       	mov    $0x4b,%eax
  402bfe:	29 c8                	sub    %ecx,%eax
  402c00:	75 17                	jne    402c19 <submitr+0x6f6>
  402c02:	0f b6 4b 02          	movzbl 0x2(%rbx),%ecx
  402c06:	b8 0a 00 00 00       	mov    $0xa,%eax
  402c0b:	29 c8                	sub    %ecx,%eax
  402c0d:	75 0a                	jne    402c19 <submitr+0x6f6>
  402c0f:	0f b6 43 03          	movzbl 0x3(%rbx),%eax
  402c13:	f7 d8                	neg    %eax
  402c15:	eb 02                	jmp    402c19 <submitr+0x6f6>
  402c17:	89 d0                	mov    %edx,%eax
  402c19:	85 c0                	test   %eax,%eax
  402c1b:	74 40                	je     402c5d <submitr+0x73a>
  402c1d:	bf f0 38 40 00       	mov    $0x4038f0,%edi
  402c22:	b9 05 00 00 00       	mov    $0x5,%ecx
  402c27:	48 89 de             	mov    %rbx,%rsi
  402c2a:	f3 a6                	repz cmpsb %es:(%rdi),%ds:(%rsi)
  402c2c:	0f 97 c0             	seta   %al
  402c2f:	0f 92 c1             	setb   %cl
  402c32:	29 c8                	sub    %ecx,%eax
  402c34:	0f be c0             	movsbl %al,%eax
  402c37:	85 c0                	test   %eax,%eax
  402c39:	74 2e                	je     402c69 <submitr+0x746>
  402c3b:	85 d2                	test   %edx,%edx
  402c3d:	75 13                	jne    402c52 <submitr+0x72f>
  402c3f:	0f b6 43 01          	movzbl 0x1(%rbx),%eax
  402c43:	ba 4b 00 00 00       	mov    $0x4b,%edx
  402c48:	29 c2                	sub    %eax,%edx
  402c4a:	75 06                	jne    402c52 <submitr+0x72f>
  402c4c:	0f b6 53 02          	movzbl 0x2(%rbx),%edx
  402c50:	f7 da                	neg    %edx
  402c52:	85 d2                	test   %edx,%edx
  402c54:	75 0e                	jne    402c64 <submitr+0x741>
  402c56:	b8 00 00 00 00       	mov    $0x0,%eax
  402c5b:	eb 0c                	jmp    402c69 <submitr+0x746>
  402c5d:	b8 00 00 00 00       	mov    $0x0,%eax
  402c62:	eb 05                	jmp    402c69 <submitr+0x746>
  402c64:	b8 ff ff ff ff       	mov    $0xffffffff,%eax
  402c69:	48 8b 9c 24 48 a0 00 	mov    0xa048(%rsp),%rbx
  402c70:	00 
  402c71:	64 48 33 1c 25 28 00 	xor    %fs:0x28,%rbx
  402c78:	00 00 
  402c7a:	74 05                	je     402c81 <submitr+0x75e>
  402c7c:	e8 6f e0 ff ff       	call   400cf0 <__stack_chk_fail@plt>
  402c81:	48 81 c4 58 a0 00 00 	add    $0xa058,%rsp
  402c88:	5b                   	pop    %rbx
  402c89:	5d                   	pop    %rbp
  402c8a:	41 5c                	pop    %r12
  402c8c:	41 5d                	pop    %r13
  402c8e:	41 5e                	pop    %r14
  402c90:	41 5f                	pop    %r15
  402c92:	c3                   	ret    

0000000000402c93 <init_timeout>:
  402c93:	85 ff                	test   %edi,%edi
  402c95:	74 23                	je     402cba <init_timeout+0x27>
  402c97:	53                   	push   %rbx
  402c98:	89 fb                	mov    %edi,%ebx
  402c9a:	85 ff                	test   %edi,%edi
  402c9c:	79 05                	jns    402ca3 <init_timeout+0x10>
  402c9e:	bb 00 00 00 00       	mov    $0x0,%ebx
  402ca3:	be 57 22 40 00       	mov    $0x402257,%esi
  402ca8:	bf 0e 00 00 00       	mov    $0xe,%edi
  402cad:	e8 ae e0 ff ff       	call   400d60 <signal@plt>
  402cb2:	89 df                	mov    %ebx,%edi
  402cb4:	e8 67 e0 ff ff       	call   400d20 <alarm@plt>
  402cb9:	5b                   	pop    %rbx
  402cba:	f3 c3                	repz ret 

0000000000402cbc <init_driver>:
  402cbc:	55                   	push   %rbp
  402cbd:	53                   	push   %rbx
  402cbe:	48 83 ec 28          	sub    $0x28,%rsp
  402cc2:	48 89 fd             	mov    %rdi,%rbp
  402cc5:	64 48 8b 04 25 28 00 	mov    %fs:0x28,%rax
  402ccc:	00 00 
  402cce:	48 89 44 24 18       	mov    %rax,0x18(%rsp)
  402cd3:	31 c0                	xor    %eax,%eax
  402cd5:	be 01 00 00 00       	mov    $0x1,%esi
  402cda:	bf 0d 00 00 00       	mov    $0xd,%edi
  402cdf:	e8 7c e0 ff ff       	call   400d60 <signal@plt>
  402ce4:	be 01 00 00 00       	mov    $0x1,%esi
  402ce9:	bf 1d 00 00 00       	mov    $0x1d,%edi
  402cee:	e8 6d e0 ff ff       	call   400d60 <signal@plt>
  402cf3:	be 01 00 00 00       	mov    $0x1,%esi
  402cf8:	bf 1d 00 00 00       	mov    $0x1d,%edi
  402cfd:	e8 5e e0 ff ff       	call   400d60 <signal@plt>
  402d02:	ba 00 00 00 00       	mov    $0x0,%edx
  402d07:	be 01 00 00 00       	mov    $0x1,%esi
  402d0c:	bf 02 00 00 00       	mov    $0x2,%edi
  402d11:	e8 7a e1 ff ff       	call   400e90 <socket@plt>
  402d16:	85 c0                	test   %eax,%eax
  402d18:	79 4f                	jns    402d69 <init_driver+0xad>
  402d1a:	48 b8 45 72 72 6f 72 	movabs $0x43203a726f727245,%rax
  402d21:	3a 20 43 
  402d24:	48 89 45 00          	mov    %rax,0x0(%rbp)
  402d28:	48 b8 6c 69 65 6e 74 	movabs $0x6e7520746e65696c,%rax
  402d2f:	20 75 6e 
  402d32:	48 89 45 08          	mov    %rax,0x8(%rbp)
  402d36:	48 b8 61 62 6c 65 20 	movabs $0x206f7420656c6261,%rax
  402d3d:	74 6f 20 
  402d40:	48 89 45 10          	mov    %rax,0x10(%rbp)
  402d44:	48 b8 63 72 65 61 74 	movabs $0x7320657461657263,%rax
  402d4b:	65 20 73 
  402d4e:	48 89 45 18          	mov    %rax,0x18(%rbp)
  402d52:	c7 45 20 6f 63 6b 65 	movl   $0x656b636f,0x20(%rbp)
  402d59:	66 c7 45 24 74 00    	movw   $0x74,0x24(%rbp)
  402d5f:	b8 ff ff ff ff       	mov    $0xffffffff,%eax
  402d64:	e9 2a 01 00 00       	jmp    402e93 <init_driver+0x1d7>
  402d69:	89 c3                	mov    %eax,%ebx
  402d6b:	bf f5 38 40 00       	mov    $0x4038f5,%edi
  402d70:	e8 fb df ff ff       	call   400d70 <gethostbyname@plt>
  402d75:	48 85 c0             	test   %rax,%rax
  402d78:	75 68                	jne    402de2 <init_driver+0x126>
  402d7a:	48 b8 45 72 72 6f 72 	movabs $0x44203a726f727245,%rax
  402d81:	3a 20 44 
  402d84:	48 89 45 00          	mov    %rax,0x0(%rbp)
  402d88:	48 b8 4e 53 20 69 73 	movabs $0x6e7520736920534e,%rax
  402d8f:	20 75 6e 
  402d92:	48 89 45 08          	mov    %rax,0x8(%rbp)
  402d96:	48 b8 61 62 6c 65 20 	movabs $0x206f7420656c6261,%rax
  402d9d:	74 6f 20 
  402da0:	48 89 45 10          	mov    %rax,0x10(%rbp)
  402da4:	48 b8 72 65 73 6f 6c 	movabs $0x2065766c6f736572,%rax
  402dab:	76 65 20 
  402dae:	48 89 45 18          	mov    %rax,0x18(%rbp)
  402db2:	48 b8 73 65 72 76 65 	movabs $0x6120726576726573,%rax
  402db9:	72 20 61 
  402dbc:	48 89 45 20          	mov    %rax,0x20(%rbp)
  402dc0:	c7 45 28 64 64 72 65 	movl   $0x65726464,0x28(%rbp)
  402dc7:	66 c7 45 2c 73 73    	movw   $0x7373,0x2c(%rbp)
  402dcd:	c6 45 2e 00          	movb   $0x0,0x2e(%rbp)
  402dd1:	89 df                	mov    %ebx,%edi
  402dd3:	e8 58 df ff ff       	call   400d30 <close@plt>
  402dd8:	b8 ff ff ff ff       	mov    $0xffffffff,%eax
  402ddd:	e9 b1 00 00 00       	jmp    402e93 <init_driver+0x1d7>
  402de2:	48 c7 04 24 00 00 00 	movq   $0x0,(%rsp)
  402de9:	00 
  402dea:	48 c7 44 24 08 00 00 	movq   $0x0,0x8(%rsp)
  402df1:	00 00 
  402df3:	66 c7 04 24 02 00    	movw   $0x2,(%rsp)
  402df9:	48 63 50 14          	movslq 0x14(%rax),%rdx
  402dfd:	48 8b 40 18          	mov    0x18(%rax),%rax
  402e01:	48 8b 30             	mov    (%rax),%rsi
  402e04:	48 8d 7c 24 04       	lea    0x4(%rsp),%rdi
  402e09:	b9 0c 00 00 00       	mov    $0xc,%ecx
  402e0e:	e8 6d df ff ff       	call   400d80 <__memmove_chk@plt>
  402e13:	66 c7 44 24 02 3c 9a 	movw   $0x9a3c,0x2(%rsp)
  402e1a:	ba 10 00 00 00       	mov    $0x10,%edx
  402e1f:	48 89 e6             	mov    %rsp,%rsi
  402e22:	89 df                	mov    %ebx,%edi
  402e24:	e8 37 e0 ff ff       	call   400e60 <connect@plt>
  402e29:	85 c0                	test   %eax,%eax
  402e2b:	79 50                	jns    402e7d <init_driver+0x1c1>
  402e2d:	48 b8 45 72 72 6f 72 	movabs $0x55203a726f727245,%rax
  402e34:	3a 20 55 
  402e37:	48 89 45 00          	mov    %rax,0x0(%rbp)
  402e3b:	48 b8 6e 61 62 6c 65 	movabs $0x6f7420656c62616e,%rax
  402e42:	20 74 6f 
  402e45:	48 89 45 08          	mov    %rax,0x8(%rbp)
  402e49:	48 b8 20 63 6f 6e 6e 	movabs $0x7463656e6e6f6320,%rax
  402e50:	65 63 74 
  402e53:	48 89 45 10          	mov    %rax,0x10(%rbp)
  402e57:	48 b8 20 74 6f 20 73 	movabs $0x76726573206f7420,%rax
  402e5e:	65 72 76 
  402e61:	48 89 45 18          	mov    %rax,0x18(%rbp)
  402e65:	66 c7 45 20 65 72    	movw   $0x7265,0x20(%rbp)
  402e6b:	c6 45 22 00          	movb   $0x0,0x22(%rbp)
  402e6f:	89 df                	mov    %ebx,%edi
  402e71:	e8 ba de ff ff       	call   400d30 <close@plt>
  402e76:	b8 ff ff ff ff       	mov    $0xffffffff,%eax
  402e7b:	eb 16                	jmp    402e93 <init_driver+0x1d7>
  402e7d:	89 df                	mov    %ebx,%edi
  402e7f:	e8 ac de ff ff       	call   400d30 <close@plt>
  402e84:	66 c7 45 00 4f 4b    	movw   $0x4b4f,0x0(%rbp)
  402e8a:	c6 45 02 00          	movb   $0x0,0x2(%rbp)
  402e8e:	b8 00 00 00 00       	mov    $0x0,%eax
  402e93:	48 8b 4c 24 18       	mov    0x18(%rsp),%rcx
  402e98:	64 48 33 0c 25 28 00 	xor    %fs:0x28,%rcx
  402e9f:	00 00 
  402ea1:	74 05                	je     402ea8 <init_driver+0x1ec>
  402ea3:	e8 48 de ff ff       	call   400cf0 <__stack_chk_fail@plt>
  402ea8:	48 83 c4 28          	add    $0x28,%rsp
  402eac:	5b                   	pop    %rbx
  402ead:	5d                   	pop    %rbp
  402eae:	c3                   	ret    

0000000000402eaf <driver_post>:
  402eaf:	53                   	push   %rbx
  402eb0:	4c 89 cb             	mov    %r9,%rbx
  402eb3:	45 85 c0             	test   %r8d,%r8d
  402eb6:	74 27                	je     402edf <driver_post+0x30>
  402eb8:	48 89 ca             	mov    %rcx,%rdx
  402ebb:	be 03 39 40 00       	mov    $0x403903,%esi
  402ec0:	bf 01 00 00 00       	mov    $0x1,%edi
  402ec5:	b8 00 00 00 00       	mov    $0x0,%eax
  402eca:	e8 31 df ff ff       	call   400e00 <__printf_chk@plt>
  402ecf:	66 c7 03 4f 4b       	movw   $0x4b4f,(%rbx)
  402ed4:	c6 43 02 00          	movb   $0x0,0x2(%rbx)
  402ed8:	b8 00 00 00 00       	mov    $0x0,%eax
  402edd:	eb 3f                	jmp    402f1e <driver_post+0x6f>
  402edf:	48 85 ff             	test   %rdi,%rdi
  402ee2:	74 2c                	je     402f10 <driver_post+0x61>
  402ee4:	80 3f 00             	cmpb   $0x0,(%rdi)
  402ee7:	74 27                	je     402f10 <driver_post+0x61>
  402ee9:	48 83 ec 08          	sub    $0x8,%rsp
  402eed:	41 51                	push   %r9
  402eef:	49 89 c9             	mov    %rcx,%r9
  402ef2:	49 89 d0             	mov    %rdx,%r8
  402ef5:	48 89 f9             	mov    %rdi,%rcx
  402ef8:	48 89 f2             	mov    %rsi,%rdx
  402efb:	be 9a 3c 00 00       	mov    $0x3c9a,%esi
  402f00:	bf f5 38 40 00       	mov    $0x4038f5,%edi
  402f05:	e8 19 f6 ff ff       	call   402523 <submitr>
  402f0a:	48 83 c4 10          	add    $0x10,%rsp
  402f0e:	eb 0e                	jmp    402f1e <driver_post+0x6f>
  402f10:	66 c7 03 4f 4b       	movw   $0x4b4f,(%rbx)
  402f15:	c6 43 02 00          	movb   $0x0,0x2(%rbx)
  402f19:	b8 00 00 00 00       	mov    $0x0,%eax
  402f1e:	5b                   	pop    %rbx
  402f1f:	c3                   	ret    

0000000000402f20 <check>:
  402f20:	89 f8                	mov    %edi,%eax
  402f22:	c1 e8 1c             	shr    $0x1c,%eax
  402f25:	85 c0                	test   %eax,%eax
  402f27:	74 1d                	je     402f46 <check+0x26>
  402f29:	b9 00 00 00 00       	mov    $0x0,%ecx
  402f2e:	eb 0b                	jmp    402f3b <check+0x1b>
  402f30:	89 f8                	mov    %edi,%eax
  402f32:	d3 e8                	shr    %cl,%eax
  402f34:	3c 0a                	cmp    $0xa,%al
  402f36:	74 14                	je     402f4c <check+0x2c>
  402f38:	83 c1 08             	add    $0x8,%ecx
  402f3b:	83 f9 1f             	cmp    $0x1f,%ecx
  402f3e:	7e f0                	jle    402f30 <check+0x10>
  402f40:	b8 01 00 00 00       	mov    $0x1,%eax
  402f45:	c3                   	ret    
  402f46:	b8 00 00 00 00       	mov    $0x0,%eax
  402f4b:	c3                   	ret    
  402f4c:	b8 00 00 00 00       	mov    $0x0,%eax
  402f51:	c3                   	ret    

0000000000402f52 <gencookie>:
  402f52:	53                   	push   %rbx
  402f53:	83 c7 01             	add    $0x1,%edi
  402f56:	e8 45 dd ff ff       	call   400ca0 <srandom@plt>
  402f5b:	e8 60 de ff ff       	call   400dc0 <random@plt>
  402f60:	89 c3                	mov    %eax,%ebx
  402f62:	89 c7                	mov    %eax,%edi
  402f64:	e8 b7 ff ff ff       	call   402f20 <check>
  402f69:	85 c0                	test   %eax,%eax
  402f6b:	74 ee                	je     402f5b <gencookie+0x9>
  402f6d:	89 d8                	mov    %ebx,%eax
  402f6f:	5b                   	pop    %rbx
  402f70:	c3                   	ret    
  402f71:	66 2e 0f 1f 84 00 00 	cs nopw 0x0(%rax,%rax,1)
  402f78:	00 00 00 
  402f7b:	0f 1f 44 00 00       	nopl   0x0(%rax,%rax,1)

0000000000402f80 <__libc_csu_init>:
  402f80:	41 57                	push   %r15
  402f82:	41 56                	push   %r14
  402f84:	41 89 ff             	mov    %edi,%r15d
  402f87:	41 55                	push   %r13
  402f89:	41 54                	push   %r12
  402f8b:	4c 8d 25 7e 1e 20 00 	lea    0x201e7e(%rip),%r12        # 604e10 <__frame_dummy_init_array_entry>
  402f92:	55                   	push   %rbp
  402f93:	48 8d 2d 7e 1e 20 00 	lea    0x201e7e(%rip),%rbp        # 604e18 <__do_global_dtors_aux_fini_array_entry>
  402f9a:	53                   	push   %rbx
  402f9b:	49 89 f6             	mov    %rsi,%r14
  402f9e:	49 89 d5             	mov    %rdx,%r13
  402fa1:	4c 29 e5             	sub    %r12,%rbp
  402fa4:	48 83 ec 08          	sub    $0x8,%rsp
  402fa8:	48 c1 fd 03          	sar    $0x3,%rbp
  402fac:	e8 97 dc ff ff       	call   400c48 <_init>
  402fb1:	48 85 ed             	test   %rbp,%rbp
  402fb4:	74 20                	je     402fd6 <__libc_csu_init+0x56>
  402fb6:	31 db                	xor    %ebx,%ebx
  402fb8:	0f 1f 84 00 00 00 00 	nopl   0x0(%rax,%rax,1)
  402fbf:	00 
  402fc0:	4c 89 ea             	mov    %r13,%rdx
  402fc3:	4c 89 f6             	mov    %r14,%rsi
  402fc6:	44 89 ff             	mov    %r15d,%edi
  402fc9:	41 ff 14 dc          	call   *(%r12,%rbx,8)
  402fcd:	48 83 c3 01          	add    $0x1,%rbx
  402fd1:	48 39 eb             	cmp    %rbp,%rbx
  402fd4:	75 ea                	jne    402fc0 <__libc_csu_init+0x40>
  402fd6:	48 83 c4 08          	add    $0x8,%rsp
  402fda:	5b                   	pop    %rbx
  402fdb:	5d                   	pop    %rbp
  402fdc:	41 5c                	pop    %r12
  402fde:	41 5d                	pop    %r13
  402fe0:	41 5e                	pop    %r14
  402fe2:	41 5f                	pop    %r15
  402fe4:	c3                   	ret    
  402fe5:	90                   	nop
  402fe6:	66 2e 0f 1f 84 00 00 	cs nopw 0x0(%rax,%rax,1)
  402fed:	00 00 00 

0000000000402ff0 <__libc_csu_fini>:
  402ff0:	f3 c3                	repz ret 

Disassembly of section .fini:

0000000000402ff4 <_fini>:
  402ff4:	48 83 ec 08          	sub    $0x8,%rsp
  402ff8:	48 83 c4 08          	add    $0x8,%rsp
  402ffc:	c3                   	ret    
